
USART_UNIT_TEST2.elf:     file format elf32-littlearm

Sections:
Idx Name          Size      VMA       LMA       File off  Algn
  0 .text         00003f7c  00000000  00000000  00008000  2**3
                  CONTENTS, ALLOC, LOAD, READONLY, CODE
  1 .relocate     00000068  20000000  00003f7c  00010000  2**2
                  CONTENTS, ALLOC, LOAD, DATA
  2 .bss          0000020c  20000068  00003fe4  00010068  2**2
                  ALLOC
  3 .stack        00002004  20000274  000041f0  00010068  2**0
                  ALLOC
  4 .ARM.attributes 00000028  00000000  00000000  00010068  2**0
                  CONTENTS, READONLY
  5 .comment      0000005b  00000000  00000000  00010090  2**0
                  CONTENTS, READONLY
  6 .debug_frame  000007dc  00000000  00000000  000100ec  2**2
                  CONTENTS, READONLY, DEBUGGING

Disassembly of section .text:

00000000 <_sfixed>:
       0:	20002278 	.word	0x20002278
       4:	00001de9 	.word	0x00001de9
       8:	00001de5 	.word	0x00001de5
       c:	00001de5 	.word	0x00001de5
	...
      2c:	00001de5 	.word	0x00001de5
	...
      38:	00001de5 	.word	0x00001de5
      3c:	00001de5 	.word	0x00001de5
      40:	00001de5 	.word	0x00001de5
      44:	00001de5 	.word	0x00001de5
      48:	00001de5 	.word	0x00001de5
      4c:	00001de5 	.word	0x00001de5
      50:	00001de5 	.word	0x00001de5
      54:	00001de5 	.word	0x00001de5
      58:	00001de5 	.word	0x00001de5
      5c:	00001de5 	.word	0x00001de5
      60:	00001de5 	.word	0x00001de5
      64:	00000905 	.word	0x00000905
      68:	00000915 	.word	0x00000915
      6c:	00000925 	.word	0x00000925
      70:	00000935 	.word	0x00000935
      74:	00000945 	.word	0x00000945
      78:	00000955 	.word	0x00000955
      7c:	00001de5 	.word	0x00001de5
      80:	00001de5 	.word	0x00001de5
      84:	00001de5 	.word	0x00001de5
      88:	00001de5 	.word	0x00001de5
      8c:	00001de5 	.word	0x00001de5
      90:	00001de5 	.word	0x00001de5
      94:	00001de5 	.word	0x00001de5
      98:	00001de5 	.word	0x00001de5
      9c:	00001de5 	.word	0x00001de5
      a0:	00001de5 	.word	0x00001de5
      a4:	00001de5 	.word	0x00001de5
      a8:	00001de5 	.word	0x00001de5
      ac:	00001de5 	.word	0x00001de5

000000b0 <__do_global_dtors_aux>:
      b0:	b510      	push	{r4, lr}
      b2:	4c06      	ldr	r4, [pc, #24]	; (cc <__do_global_dtors_aux+0x1c>)
      b4:	7823      	ldrb	r3, [r4, #0]
      b6:	2b00      	cmp	r3, #0
      b8:	d107      	bne.n	ca <__do_global_dtors_aux+0x1a>
      ba:	4b05      	ldr	r3, [pc, #20]	; (d0 <__do_global_dtors_aux+0x20>)
      bc:	2b00      	cmp	r3, #0
      be:	d002      	beq.n	c6 <__do_global_dtors_aux+0x16>
      c0:	4804      	ldr	r0, [pc, #16]	; (d4 <__do_global_dtors_aux+0x24>)
      c2:	e000      	b.n	c6 <__do_global_dtors_aux+0x16>
      c4:	bf00      	nop
      c6:	2301      	movs	r3, #1
      c8:	7023      	strb	r3, [r4, #0]
      ca:	bd10      	pop	{r4, pc}
      cc:	20000068 	.word	0x20000068
      d0:	00000000 	.word	0x00000000
      d4:	00003f7c 	.word	0x00003f7c

000000d8 <frame_dummy>:
      d8:	b508      	push	{r3, lr}
      da:	4b08      	ldr	r3, [pc, #32]	; (fc <frame_dummy+0x24>)
      dc:	2b00      	cmp	r3, #0
      de:	d003      	beq.n	e8 <frame_dummy+0x10>
      e0:	4807      	ldr	r0, [pc, #28]	; (100 <frame_dummy+0x28>)
      e2:	4908      	ldr	r1, [pc, #32]	; (104 <frame_dummy+0x2c>)
      e4:	e000      	b.n	e8 <frame_dummy+0x10>
      e6:	bf00      	nop
      e8:	4807      	ldr	r0, [pc, #28]	; (108 <frame_dummy+0x30>)
      ea:	6803      	ldr	r3, [r0, #0]
      ec:	2b00      	cmp	r3, #0
      ee:	d003      	beq.n	f8 <frame_dummy+0x20>
      f0:	4b06      	ldr	r3, [pc, #24]	; (10c <frame_dummy+0x34>)
      f2:	2b00      	cmp	r3, #0
      f4:	d000      	beq.n	f8 <frame_dummy+0x20>
      f6:	4798      	blx	r3
      f8:	bd08      	pop	{r3, pc}
      fa:	46c0      	nop			; (mov r8, r8)
      fc:	00000000 	.word	0x00000000
     100:	00003f7c 	.word	0x00003f7c
     104:	2000006c 	.word	0x2000006c
     108:	00003f7c 	.word	0x00003f7c
     10c:	00000000 	.word	0x00000000

00000110 <cpu_irq_enter_critical>:
     110:	4b09      	ldr	r3, [pc, #36]	; (138 <cpu_irq_enter_critical+0x28>)
     112:	6819      	ldr	r1, [r3, #0]
     114:	2900      	cmp	r1, #0
     116:	d10b      	bne.n	130 <cpu_irq_enter_critical+0x20>
     118:	f3ef 8010 	mrs	r0, PRIMASK
     11c:	4a07      	ldr	r2, [pc, #28]	; (13c <cpu_irq_enter_critical+0x2c>)
     11e:	2800      	cmp	r0, #0
     120:	d105      	bne.n	12e <cpu_irq_enter_critical+0x1e>
     122:	b672      	cpsid	i
     124:	f3bf 8f5f 	dmb	sy
     128:	4905      	ldr	r1, [pc, #20]	; (140 <cpu_irq_enter_critical+0x30>)
     12a:	7008      	strb	r0, [r1, #0]
     12c:	2101      	movs	r1, #1
     12e:	7011      	strb	r1, [r2, #0]
     130:	681a      	ldr	r2, [r3, #0]
     132:	3201      	adds	r2, #1
     134:	601a      	str	r2, [r3, #0]
     136:	4770      	bx	lr
     138:	20000084 	.word	0x20000084
     13c:	20000088 	.word	0x20000088
     140:	20000000 	.word	0x20000000

00000144 <cpu_irq_leave_critical>:
     144:	b537      	push	{r0, r1, r2, r4, r5, lr}
     146:	4b16      	ldr	r3, [pc, #88]	; (1a0 <cpu_irq_leave_critical+0x5c>)
     148:	4c16      	ldr	r4, [pc, #88]	; (1a4 <cpu_irq_leave_critical+0x60>)
     14a:	6818      	ldr	r0, [r3, #0]
     14c:	6823      	ldr	r3, [r4, #0]
     14e:	2800      	cmp	r0, #0
     150:	d00b      	beq.n	16a <cpu_irq_leave_critical+0x26>
     152:	2b00      	cmp	r3, #0
     154:	d112      	bne.n	17c <cpu_irq_leave_critical+0x38>
     156:	4b14      	ldr	r3, [pc, #80]	; (1a8 <cpu_irq_leave_critical+0x64>)
     158:	2101      	movs	r1, #1
     15a:	9300      	str	r3, [sp, #0]
     15c:	4b13      	ldr	r3, [pc, #76]	; (1ac <cpu_irq_leave_critical+0x68>)
     15e:	4a14      	ldr	r2, [pc, #80]	; (1b0 <cpu_irq_leave_critical+0x6c>)
     160:	9301      	str	r3, [sp, #4]
     162:	4d14      	ldr	r5, [pc, #80]	; (1b4 <cpu_irq_leave_critical+0x70>)
     164:	234c      	movs	r3, #76	; 0x4c
     166:	47a8      	blx	r5
     168:	e008      	b.n	17c <cpu_irq_leave_critical+0x38>
     16a:	2b00      	cmp	r3, #0
     16c:	d106      	bne.n	17c <cpu_irq_leave_critical+0x38>
     16e:	4812      	ldr	r0, [pc, #72]	; (1b8 <cpu_irq_leave_critical+0x74>)
     170:	490e      	ldr	r1, [pc, #56]	; (1ac <cpu_irq_leave_critical+0x68>)
     172:	4a0f      	ldr	r2, [pc, #60]	; (1b0 <cpu_irq_leave_critical+0x6c>)
     174:	234c      	movs	r3, #76	; 0x4c
     176:	4c11      	ldr	r4, [pc, #68]	; (1bc <cpu_irq_leave_critical+0x78>)
     178:	47a0      	blx	r4
     17a:	e7fe      	b.n	17a <cpu_irq_leave_critical+0x36>
     17c:	6823      	ldr	r3, [r4, #0]
     17e:	3b01      	subs	r3, #1
     180:	6023      	str	r3, [r4, #0]
     182:	6823      	ldr	r3, [r4, #0]
     184:	2b00      	cmp	r3, #0
     186:	d109      	bne.n	19c <cpu_irq_leave_critical+0x58>
     188:	4b0d      	ldr	r3, [pc, #52]	; (1c0 <cpu_irq_leave_critical+0x7c>)
     18a:	781b      	ldrb	r3, [r3, #0]
     18c:	2b00      	cmp	r3, #0
     18e:	d005      	beq.n	19c <cpu_irq_leave_critical+0x58>
     190:	4b0c      	ldr	r3, [pc, #48]	; (1c4 <cpu_irq_leave_critical+0x80>)
     192:	2201      	movs	r2, #1
     194:	701a      	strb	r2, [r3, #0]
     196:	f3bf 8f5f 	dmb	sy
     19a:	b662      	cpsie	i
     19c:	bd37      	pop	{r0, r1, r2, r4, r5, pc}
     19e:	46c0      	nop			; (mov r8, r8)
     1a0:	2000008c 	.word	0x2000008c
     1a4:	20000084 	.word	0x20000084
     1a8:	000038ff 	.word	0x000038ff
     1ac:	00003914 	.word	0x00003914
     1b0:	000038c8 	.word	0x000038c8
     1b4:	000001f5 	.word	0x000001f5
     1b8:	00003939 	.word	0x00003939
     1bc:	00002889 	.word	0x00002889
     1c0:	20000088 	.word	0x20000088
     1c4:	20000000 	.word	0x20000000

000001c8 <test_call>:
     1c8:	b513      	push	{r0, r1, r4, lr}
     1ca:	9000      	str	r0, [sp, #0]
     1cc:	9101      	str	r1, [sp, #4]
     1ce:	2800      	cmp	r0, #0
     1d0:	d008      	beq.n	1e4 <test_call+0x1c>
     1d2:	4806      	ldr	r0, [pc, #24]	; (1ec <test_call+0x24>)
     1d4:	4b06      	ldr	r3, [pc, #24]	; (1f0 <test_call+0x28>)
     1d6:	4798      	blx	r3
     1d8:	1e04      	subs	r4, r0, #0
     1da:	d104      	bne.n	1e6 <test_call+0x1e>
     1dc:	9801      	ldr	r0, [sp, #4]
     1de:	9b00      	ldr	r3, [sp, #0]
     1e0:	4798      	blx	r3
     1e2:	e000      	b.n	1e6 <test_call+0x1e>
     1e4:	9c00      	ldr	r4, [sp, #0]
     1e6:	1c20      	adds	r0, r4, #0
     1e8:	bd16      	pop	{r1, r2, r4, pc}
     1ea:	46c0      	nop			; (mov r8, r8)
     1ec:	20000090 	.word	0x20000090
     1f0:	000029a7 	.word	0x000029a7

000001f4 <test_case_fail>:
     1f4:	b573      	push	{r0, r1, r4, r5, r6, lr}
     1f6:	ae06      	add	r6, sp, #24
     1f8:	4c2c      	ldr	r4, [pc, #176]	; (2ac <test_case_fail+0xb8>)
     1fa:	1c0d      	adds	r5, r1, #0
     1fc:	ce02      	ldmia	r6!, {r1}
     1fe:	68c1      	ldr	r1, [r0, #12]
     200:	482b      	ldr	r0, [pc, #172]	; (2b0 <test_case_fail+0xbc>)
     202:	47a0      	blx	r4
     204:	4c2b      	ldr	r4, [pc, #172]	; (2b4 <test_case_fail+0xc0>)
     206:	1c32      	adds	r2, r6, #0
     208:	6823      	ldr	r3, [r4, #0]
     20a:	9601      	str	r6, [sp, #4]
     20c:	6898      	ldr	r0, [r3, #8]
     20e:	9906      	ldr	r1, [sp, #24]
     210:	4b29      	ldr	r3, [pc, #164]	; (2b8 <test_case_fail+0xc4>)
     212:	4798      	blx	r3
     214:	6820      	ldr	r0, [r4, #0]
     216:	6882      	ldr	r2, [r0, #8]
     218:	6893      	ldr	r3, [r2, #8]
     21a:	3b01      	subs	r3, #1
     21c:	6093      	str	r3, [r2, #8]
     21e:	6882      	ldr	r2, [r0, #8]
     220:	2b00      	cmp	r3, #0
     222:	da13      	bge.n	24c <test_case_fail+0x58>
     224:	6893      	ldr	r3, [r2, #8]
     226:	6991      	ldr	r1, [r2, #24]
     228:	428b      	cmp	r3, r1
     22a:	db0b      	blt.n	244 <test_case_fail+0x50>
     22c:	6813      	ldr	r3, [r2, #0]
     22e:	220d      	movs	r2, #13
     230:	701a      	strb	r2, [r3, #0]
     232:	6820      	ldr	r0, [r4, #0]
     234:	6882      	ldr	r2, [r0, #8]
     236:	6813      	ldr	r3, [r2, #0]
     238:	7819      	ldrb	r1, [r3, #0]
     23a:	290a      	cmp	r1, #10
     23c:	d003      	beq.n	246 <test_case_fail+0x52>
     23e:	3301      	adds	r3, #1
     240:	6013      	str	r3, [r2, #0]
     242:	e00b      	b.n	25c <test_case_fail+0x68>
     244:	210d      	movs	r1, #13
     246:	4b1d      	ldr	r3, [pc, #116]	; (2bc <test_case_fail+0xc8>)
     248:	4798      	blx	r3
     24a:	e007      	b.n	25c <test_case_fail+0x68>
     24c:	6813      	ldr	r3, [r2, #0]
     24e:	220d      	movs	r2, #13
     250:	701a      	strb	r2, [r3, #0]
     252:	6823      	ldr	r3, [r4, #0]
     254:	689b      	ldr	r3, [r3, #8]
     256:	681a      	ldr	r2, [r3, #0]
     258:	3201      	adds	r2, #1
     25a:	601a      	str	r2, [r3, #0]
     25c:	6820      	ldr	r0, [r4, #0]
     25e:	6882      	ldr	r2, [r0, #8]
     260:	6893      	ldr	r3, [r2, #8]
     262:	3b01      	subs	r3, #1
     264:	6093      	str	r3, [r2, #8]
     266:	6882      	ldr	r2, [r0, #8]
     268:	2b00      	cmp	r3, #0
     26a:	da13      	bge.n	294 <test_case_fail+0xa0>
     26c:	6893      	ldr	r3, [r2, #8]
     26e:	6991      	ldr	r1, [r2, #24]
     270:	428b      	cmp	r3, r1
     272:	db0b      	blt.n	28c <test_case_fail+0x98>
     274:	6813      	ldr	r3, [r2, #0]
     276:	220a      	movs	r2, #10
     278:	701a      	strb	r2, [r3, #0]
     27a:	6820      	ldr	r0, [r4, #0]
     27c:	6882      	ldr	r2, [r0, #8]
     27e:	6813      	ldr	r3, [r2, #0]
     280:	7819      	ldrb	r1, [r3, #0]
     282:	290a      	cmp	r1, #10
     284:	d003      	beq.n	28e <test_case_fail+0x9a>
     286:	3301      	adds	r3, #1
     288:	6013      	str	r3, [r2, #0]
     28a:	e00b      	b.n	2a4 <test_case_fail+0xb0>
     28c:	210a      	movs	r1, #10
     28e:	4b0b      	ldr	r3, [pc, #44]	; (2bc <test_case_fail+0xc8>)
     290:	4798      	blx	r3
     292:	e007      	b.n	2a4 <test_case_fail+0xb0>
     294:	6813      	ldr	r3, [r2, #0]
     296:	220a      	movs	r2, #10
     298:	701a      	strb	r2, [r3, #0]
     29a:	6823      	ldr	r3, [r4, #0]
     29c:	689b      	ldr	r3, [r3, #8]
     29e:	681a      	ldr	r2, [r3, #0]
     2a0:	3201      	adds	r2, #1
     2a2:	601a      	str	r2, [r3, #0]
     2a4:	4806      	ldr	r0, [pc, #24]	; (2c0 <test_case_fail+0xcc>)
     2a6:	1c29      	adds	r1, r5, #0
     2a8:	4b06      	ldr	r3, [pc, #24]	; (2c4 <test_case_fail+0xd0>)
     2aa:	4798      	blx	r3
     2ac:	00002889 	.word	0x00002889
     2b0:	0000395a 	.word	0x0000395a
     2b4:	20000064 	.word	0x20000064
     2b8:	00002d5d 	.word	0x00002d5d
     2bc:	0000308d 	.word	0x0000308d
     2c0:	20000090 	.word	0x20000090
     2c4:	000029bf 	.word	0x000029bf

000002c8 <test_suite_run>:
     2c8:	b5f0      	push	{r4, r5, r6, r7, lr}
     2ca:	1c06      	adds	r6, r0, #0
     2cc:	b087      	sub	sp, #28
     2ce:	4834      	ldr	r0, [pc, #208]	; (3a0 <test_suite_run+0xd8>)
     2d0:	68b1      	ldr	r1, [r6, #8]
     2d2:	4b34      	ldr	r3, [pc, #208]	; (3a4 <test_suite_run+0xdc>)
     2d4:	4798      	blx	r3
     2d6:	2200      	movs	r2, #0
     2d8:	9203      	str	r2, [sp, #12]
     2da:	9205      	str	r2, [sp, #20]
     2dc:	9204      	str	r2, [sp, #16]
     2de:	6832      	ldr	r2, [r6, #0]
     2e0:	9b03      	ldr	r3, [sp, #12]
     2e2:	4d30      	ldr	r5, [pc, #192]	; (3a4 <test_suite_run+0xdc>)
     2e4:	4293      	cmp	r3, r2
     2e6:	d250      	bcs.n	38a <test_suite_run+0xc2>
     2e8:	9a03      	ldr	r2, [sp, #12]
     2ea:	482f      	ldr	r0, [pc, #188]	; (3a8 <test_suite_run+0xe0>)
     2ec:	0093      	lsls	r3, r2, #2
     2ee:	6872      	ldr	r2, [r6, #4]
     2f0:	589c      	ldr	r4, [r3, r2]
     2f2:	4b2e      	ldr	r3, [pc, #184]	; (3ac <test_suite_run+0xe4>)
     2f4:	68e1      	ldr	r1, [r4, #12]
     2f6:	601c      	str	r4, [r3, #0]
     2f8:	47a8      	blx	r5
     2fa:	6822      	ldr	r2, [r4, #0]
     2fc:	2a00      	cmp	r2, #0
     2fe:	d013      	beq.n	328 <test_suite_run+0x60>
     300:	4b2b      	ldr	r3, [pc, #172]	; (3b0 <test_suite_run+0xe8>)
     302:	482c      	ldr	r0, [pc, #176]	; (3b4 <test_suite_run+0xec>)
     304:	4798      	blx	r3
     306:	6820      	ldr	r0, [r4, #0]
     308:	1c21      	adds	r1, r4, #0
     30a:	4b2b      	ldr	r3, [pc, #172]	; (3b8 <test_suite_run+0xf0>)
     30c:	4798      	blx	r3
     30e:	1e07      	subs	r7, r0, #0
     310:	d00a      	beq.n	328 <test_suite_run+0x60>
     312:	68e1      	ldr	r1, [r4, #12]
     314:	4829      	ldr	r0, [pc, #164]	; (3bc <test_suite_run+0xf4>)
     316:	4a2a      	ldr	r2, [pc, #168]	; (3c0 <test_suite_run+0xf8>)
     318:	1c3b      	adds	r3, r7, #0
     31a:	47a8      	blx	r5
     31c:	2f00      	cmp	r7, #0
     31e:	db17      	blt.n	350 <test_suite_run+0x88>
     320:	9b04      	ldr	r3, [sp, #16]
     322:	3301      	adds	r3, #1
     324:	9304      	str	r3, [sp, #16]
     326:	e02c      	b.n	382 <test_suite_run+0xba>
     328:	6860      	ldr	r0, [r4, #4]
     32a:	1c21      	adds	r1, r4, #0
     32c:	4b22      	ldr	r3, [pc, #136]	; (3b8 <test_suite_run+0xf0>)
     32e:	4798      	blx	r3
     330:	1e05      	subs	r5, r0, #0
     332:	d005      	beq.n	340 <test_suite_run+0x78>
     334:	4821      	ldr	r0, [pc, #132]	; (3bc <test_suite_run+0xf4>)
     336:	68e1      	ldr	r1, [r4, #12]
     338:	4a22      	ldr	r2, [pc, #136]	; (3c4 <test_suite_run+0xfc>)
     33a:	1c2b      	adds	r3, r5, #0
     33c:	4f19      	ldr	r7, [pc, #100]	; (3a4 <test_suite_run+0xdc>)
     33e:	47b8      	blx	r7
     340:	68a3      	ldr	r3, [r4, #8]
     342:	2b00      	cmp	r3, #0
     344:	d108      	bne.n	358 <test_suite_run+0x90>
     346:	4a19      	ldr	r2, [pc, #100]	; (3ac <test_suite_run+0xe4>)
     348:	2300      	movs	r3, #0
     34a:	6013      	str	r3, [r2, #0]
     34c:	429d      	cmp	r5, r3
     34e:	da16      	bge.n	37e <test_suite_run+0xb6>
     350:	9a05      	ldr	r2, [sp, #20]
     352:	3201      	adds	r2, #1
     354:	9205      	str	r2, [sp, #20]
     356:	e014      	b.n	382 <test_suite_run+0xba>
     358:	4b15      	ldr	r3, [pc, #84]	; (3b0 <test_suite_run+0xe8>)
     35a:	481b      	ldr	r0, [pc, #108]	; (3c8 <test_suite_run+0x100>)
     35c:	4798      	blx	r3
     35e:	68a0      	ldr	r0, [r4, #8]
     360:	1c21      	adds	r1, r4, #0
     362:	4b15      	ldr	r3, [pc, #84]	; (3b8 <test_suite_run+0xf0>)
     364:	4798      	blx	r3
     366:	1e07      	subs	r7, r0, #0
     368:	d0ed      	beq.n	346 <test_suite_run+0x7e>
     36a:	2d00      	cmp	r5, #0
     36c:	d1eb      	bne.n	346 <test_suite_run+0x7e>
     36e:	68e1      	ldr	r1, [r4, #12]
     370:	4812      	ldr	r0, [pc, #72]	; (3bc <test_suite_run+0xf4>)
     372:	4a16      	ldr	r2, [pc, #88]	; (3cc <test_suite_run+0x104>)
     374:	1c3b      	adds	r3, r7, #0
     376:	4c0b      	ldr	r4, [pc, #44]	; (3a4 <test_suite_run+0xdc>)
     378:	47a0      	blx	r4
     37a:	1c3d      	adds	r5, r7, #0
     37c:	e7e3      	b.n	346 <test_suite_run+0x7e>
     37e:	429d      	cmp	r5, r3
     380:	d1ce      	bne.n	320 <test_suite_run+0x58>
     382:	9b03      	ldr	r3, [sp, #12]
     384:	3301      	adds	r3, #1
     386:	9303      	str	r3, [sp, #12]
     388:	e7a9      	b.n	2de <test_suite_run+0x16>
     38a:	9b05      	ldr	r3, [sp, #20]
     38c:	68b1      	ldr	r1, [r6, #8]
     38e:	9300      	str	r3, [sp, #0]
     390:	480f      	ldr	r0, [pc, #60]	; (3d0 <test_suite_run+0x108>)
     392:	9b04      	ldr	r3, [sp, #16]
     394:	47a8      	blx	r5
     396:	9a05      	ldr	r2, [sp, #20]
     398:	9b04      	ldr	r3, [sp, #16]
     39a:	18d0      	adds	r0, r2, r3
     39c:	b007      	add	sp, #28
     39e:	bdf0      	pop	{r4, r5, r6, r7, pc}
     3a0:	00003978 	.word	0x00003978
     3a4:	00002889 	.word	0x00002889
     3a8:	00003995 	.word	0x00003995
     3ac:	2000008c 	.word	0x2000008c
     3b0:	00002981 	.word	0x00002981
     3b4:	000039a8 	.word	0x000039a8
     3b8:	000001c9 	.word	0x000001c9
     3bc:	000039bc 	.word	0x000039bc
     3c0:	000039df 	.word	0x000039df
     3c4:	000039e5 	.word	0x000039e5
     3c8:	000039ea 	.word	0x000039ea
     3cc:	000039ff 	.word	0x000039ff
     3d0:	00003a07 	.word	0x00003a07

000003d4 <system_board_init>:
     3d4:	b5f7      	push	{r0, r1, r2, r4, r5, r6, r7, lr}
     3d6:	ac01      	add	r4, sp, #4
     3d8:	2501      	movs	r5, #1
     3da:	2700      	movs	r7, #0
     3dc:	4e08      	ldr	r6, [pc, #32]	; (400 <system_board_init+0x2c>)
     3de:	1c21      	adds	r1, r4, #0
     3e0:	203e      	movs	r0, #62	; 0x3e
     3e2:	7065      	strb	r5, [r4, #1]
     3e4:	70a7      	strb	r7, [r4, #2]
     3e6:	7025      	strb	r5, [r4, #0]
     3e8:	47b0      	blx	r6
     3ea:	4b06      	ldr	r3, [pc, #24]	; (404 <system_board_init+0x30>)
     3ec:	2280      	movs	r2, #128	; 0x80
     3ee:	05d2      	lsls	r2, r2, #23
     3f0:	601a      	str	r2, [r3, #0]
     3f2:	200f      	movs	r0, #15
     3f4:	1c21      	adds	r1, r4, #0
     3f6:	7027      	strb	r7, [r4, #0]
     3f8:	7065      	strb	r5, [r4, #1]
     3fa:	47b0      	blx	r6
     3fc:	bdf7      	pop	{r0, r1, r2, r4, r5, r6, r7, pc}
     3fe:	46c0      	nop			; (mov r8, r8)
     400:	00000409 	.word	0x00000409
     404:	41004498 	.word	0x41004498

00000408 <port_pin_set_config>:
     408:	b57f      	push	{r0, r1, r2, r3, r4, r5, r6, lr}
     40a:	4b14      	ldr	r3, [pc, #80]	; (45c <port_pin_set_config+0x54>)
     40c:	1c05      	adds	r5, r0, #0
     40e:	6818      	ldr	r0, [r3, #0]
     410:	1c0c      	adds	r4, r1, #0
     412:	2800      	cmp	r0, #0
     414:	d00b      	beq.n	42e <port_pin_set_config+0x26>
     416:	2900      	cmp	r1, #0
     418:	d112      	bne.n	440 <port_pin_set_config+0x38>
     41a:	4a11      	ldr	r2, [pc, #68]	; (460 <port_pin_set_config+0x58>)
     41c:	2101      	movs	r1, #1
     41e:	9200      	str	r2, [sp, #0]
     420:	4a10      	ldr	r2, [pc, #64]	; (464 <port_pin_set_config+0x5c>)
     422:	2341      	movs	r3, #65	; 0x41
     424:	9201      	str	r2, [sp, #4]
     426:	4e10      	ldr	r6, [pc, #64]	; (468 <port_pin_set_config+0x60>)
     428:	4a10      	ldr	r2, [pc, #64]	; (46c <port_pin_set_config+0x64>)
     42a:	47b0      	blx	r6
     42c:	e008      	b.n	440 <port_pin_set_config+0x38>
     42e:	2900      	cmp	r1, #0
     430:	d106      	bne.n	440 <port_pin_set_config+0x38>
     432:	480f      	ldr	r0, [pc, #60]	; (470 <port_pin_set_config+0x68>)
     434:	490b      	ldr	r1, [pc, #44]	; (464 <port_pin_set_config+0x5c>)
     436:	4a0d      	ldr	r2, [pc, #52]	; (46c <port_pin_set_config+0x64>)
     438:	2341      	movs	r3, #65	; 0x41
     43a:	4c0e      	ldr	r4, [pc, #56]	; (474 <port_pin_set_config+0x6c>)
     43c:	47a0      	blx	r4
     43e:	e7fe      	b.n	43e <port_pin_set_config+0x36>
     440:	a903      	add	r1, sp, #12
     442:	2380      	movs	r3, #128	; 0x80
     444:	700b      	strb	r3, [r1, #0]
     446:	7823      	ldrb	r3, [r4, #0]
     448:	1c28      	adds	r0, r5, #0
     44a:	704b      	strb	r3, [r1, #1]
     44c:	7863      	ldrb	r3, [r4, #1]
     44e:	708b      	strb	r3, [r1, #2]
     450:	78a3      	ldrb	r3, [r4, #2]
     452:	70cb      	strb	r3, [r1, #3]
     454:	4b08      	ldr	r3, [pc, #32]	; (478 <port_pin_set_config+0x70>)
     456:	4798      	blx	r3
     458:	bd7f      	pop	{r0, r1, r2, r3, r4, r5, r6, pc}
     45a:	46c0      	nop			; (mov r8, r8)
     45c:	2000008c 	.word	0x2000008c
     460:	000038ff 	.word	0x000038ff
     464:	00003a46 	.word	0x00003a46
     468:	000001f5 	.word	0x000001f5
     46c:	00003a7c 	.word	0x00003a7c
     470:	00003939 	.word	0x00003939
     474:	00002889 	.word	0x00002889
     478:	00001d45 	.word	0x00001d45

0000047c <_sercom_get_sync_baud_val>:
     47c:	b510      	push	{r4, lr}
     47e:	0849      	lsrs	r1, r1, #1
     480:	2440      	movs	r4, #64	; 0x40
     482:	4288      	cmp	r0, r1
     484:	d80c      	bhi.n	4a0 <_sercom_get_sync_baud_val+0x24>
     486:	2300      	movs	r3, #0
     488:	1c5c      	adds	r4, r3, #1
     48a:	1a09      	subs	r1, r1, r0
     48c:	b2a4      	uxth	r4, r4
     48e:	4281      	cmp	r1, r0
     490:	d301      	bcc.n	496 <_sercom_get_sync_baud_val+0x1a>
     492:	1c23      	adds	r3, r4, #0
     494:	e7f8      	b.n	488 <_sercom_get_sync_baud_val+0xc>
     496:	2440      	movs	r4, #64	; 0x40
     498:	2bff      	cmp	r3, #255	; 0xff
     49a:	d801      	bhi.n	4a0 <_sercom_get_sync_baud_val+0x24>
     49c:	8013      	strh	r3, [r2, #0]
     49e:	2400      	movs	r4, #0
     4a0:	1c20      	adds	r0, r4, #0
     4a2:	bd10      	pop	{r4, pc}
     4a4:	0000      	movs	r0, r0
	...

000004a8 <_sercom_get_async_baud_val>:
     4a8:	b5f0      	push	{r4, r5, r6, r7, lr}
     4aa:	b08b      	sub	sp, #44	; 0x2c
     4ac:	1c1c      	adds	r4, r3, #0
     4ae:	ab10      	add	r3, sp, #64	; 0x40
     4b0:	1c07      	adds	r7, r0, #0
     4b2:	7818      	ldrb	r0, [r3, #0]
     4b4:	9207      	str	r2, [sp, #28]
     4b6:	1c3a      	adds	r2, r7, #0
     4b8:	4342      	muls	r2, r0
     4ba:	1c0d      	adds	r5, r1, #0
     4bc:	2340      	movs	r3, #64	; 0x40
     4be:	428a      	cmp	r2, r1
     4c0:	d900      	bls.n	4c4 <_sercom_get_async_baud_val+0x1c>
     4c2:	e08f      	b.n	5e4 <_sercom_get_async_baud_val+0x13c>
     4c4:	2c00      	cmp	r4, #0
     4c6:	d13d      	bne.n	544 <_sercom_get_async_baud_val+0x9c>
     4c8:	1c21      	adds	r1, r4, #0
     4ca:	1c3a      	adds	r2, r7, #0
     4cc:	1c23      	adds	r3, r4, #0
     4ce:	4e4a      	ldr	r6, [pc, #296]	; (5f8 <_sercom_get_async_baud_val+0x150>)
     4d0:	47b0      	blx	r6
     4d2:	9006      	str	r0, [sp, #24]
     4d4:	2000      	movs	r0, #0
     4d6:	2100      	movs	r1, #0
     4d8:	9502      	str	r5, [sp, #8]
     4da:	1c0f      	adds	r7, r1, #0
     4dc:	1c0d      	adds	r5, r1, #0
     4de:	213f      	movs	r1, #63	; 0x3f
     4e0:	9403      	str	r4, [sp, #12]
     4e2:	1c06      	adds	r6, r0, #0
     4e4:	1c04      	adds	r4, r0, #0
     4e6:	9105      	str	r1, [sp, #20]
     4e8:	9a05      	ldr	r2, [sp, #20]
     4ea:	4b44      	ldr	r3, [pc, #272]	; (5fc <_sercom_get_async_baud_val+0x154>)
     4ec:	2001      	movs	r0, #1
     4ee:	2100      	movs	r1, #0
     4f0:	4798      	blx	r3
     4f2:	1c22      	adds	r2, r4, #0
     4f4:	1c2b      	adds	r3, r5, #0
     4f6:	4684      	mov	ip, r0
     4f8:	9806      	ldr	r0, [sp, #24]
     4fa:	1912      	adds	r2, r2, r4
     4fc:	416b      	adcs	r3, r5
     4fe:	1c14      	adds	r4, r2, #0
     500:	1c1d      	adds	r5, r3, #0
     502:	4208      	tst	r0, r1
     504:	d003      	beq.n	50e <_sercom_get_async_baud_val+0x66>
     506:	2201      	movs	r2, #1
     508:	4322      	orrs	r2, r4
     50a:	1c14      	adds	r4, r2, #0
     50c:	1c1d      	adds	r5, r3, #0
     50e:	9a03      	ldr	r2, [sp, #12]
     510:	42aa      	cmp	r2, r5
     512:	d80c      	bhi.n	52e <_sercom_get_async_baud_val+0x86>
     514:	d102      	bne.n	51c <_sercom_get_async_baud_val+0x74>
     516:	9b02      	ldr	r3, [sp, #8]
     518:	42a3      	cmp	r3, r4
     51a:	d808      	bhi.n	52e <_sercom_get_async_baud_val+0x86>
     51c:	4660      	mov	r0, ip
     51e:	4330      	orrs	r0, r6
     520:	4339      	orrs	r1, r7
     522:	9a02      	ldr	r2, [sp, #8]
     524:	9b03      	ldr	r3, [sp, #12]
     526:	1c06      	adds	r6, r0, #0
     528:	1aa4      	subs	r4, r4, r2
     52a:	419d      	sbcs	r5, r3
     52c:	1c0f      	adds	r7, r1, #0
     52e:	9b05      	ldr	r3, [sp, #20]
     530:	3b01      	subs	r3, #1
     532:	9305      	str	r3, [sp, #20]
     534:	d2d8      	bcs.n	4e8 <_sercom_get_async_baud_val+0x40>
     536:	4b2f      	ldr	r3, [pc, #188]	; (5f4 <_sercom_get_async_baud_val+0x14c>)
     538:	4a2d      	ldr	r2, [pc, #180]	; (5f0 <_sercom_get_async_baud_val+0x148>)
     53a:	1b92      	subs	r2, r2, r6
     53c:	41bb      	sbcs	r3, r7
     53e:	0c16      	lsrs	r6, r2, #16
     540:	041b      	lsls	r3, r3, #16
     542:	e04b      	b.n	5dc <_sercom_get_async_baud_val+0x134>
     544:	2600      	movs	r6, #0
     546:	2c01      	cmp	r4, #1
     548:	d149      	bne.n	5de <_sercom_get_async_baud_val+0x136>
     54a:	0f49      	lsrs	r1, r1, #29
     54c:	00ed      	lsls	r5, r5, #3
     54e:	9108      	str	r1, [sp, #32]
     550:	9509      	str	r5, [sp, #36]	; 0x24
     552:	1c31      	adds	r1, r6, #0
     554:	1c3a      	adds	r2, r7, #0
     556:	1c33      	adds	r3, r6, #0
     558:	4c27      	ldr	r4, [pc, #156]	; (5f8 <_sercom_get_async_baud_val+0x150>)
     55a:	47a0      	blx	r4
     55c:	9002      	str	r0, [sp, #8]
     55e:	9103      	str	r1, [sp, #12]
     560:	b2f7      	uxtb	r7, r6
     562:	9706      	str	r7, [sp, #24]
     564:	2700      	movs	r7, #0
     566:	9705      	str	r7, [sp, #20]
     568:	273f      	movs	r7, #63	; 0x3f
     56a:	2400      	movs	r4, #0
     56c:	2500      	movs	r5, #0
     56e:	9701      	str	r7, [sp, #4]
     570:	9a01      	ldr	r2, [sp, #4]
     572:	4b22      	ldr	r3, [pc, #136]	; (5fc <_sercom_get_async_baud_val+0x154>)
     574:	2001      	movs	r0, #1
     576:	2100      	movs	r1, #0
     578:	4798      	blx	r3
     57a:	9f09      	ldr	r7, [sp, #36]	; 0x24
     57c:	1c22      	adds	r2, r4, #0
     57e:	4007      	ands	r7, r0
     580:	46bc      	mov	ip, r7
     582:	9f08      	ldr	r7, [sp, #32]
     584:	1c2b      	adds	r3, r5, #0
     586:	1912      	adds	r2, r2, r4
     588:	416b      	adcs	r3, r5
     58a:	4039      	ands	r1, r7
     58c:	4667      	mov	r7, ip
     58e:	1c14      	adds	r4, r2, #0
     590:	1c1d      	adds	r5, r3, #0
     592:	4339      	orrs	r1, r7
     594:	d003      	beq.n	59e <_sercom_get_async_baud_val+0xf6>
     596:	2201      	movs	r2, #1
     598:	4322      	orrs	r2, r4
     59a:	1c14      	adds	r4, r2, #0
     59c:	1c1d      	adds	r5, r3, #0
     59e:	9903      	ldr	r1, [sp, #12]
     5a0:	42a9      	cmp	r1, r5
     5a2:	d80a      	bhi.n	5ba <_sercom_get_async_baud_val+0x112>
     5a4:	d102      	bne.n	5ac <_sercom_get_async_baud_val+0x104>
     5a6:	9a02      	ldr	r2, [sp, #8]
     5a8:	42a2      	cmp	r2, r4
     5aa:	d806      	bhi.n	5ba <_sercom_get_async_baud_val+0x112>
     5ac:	9f05      	ldr	r7, [sp, #20]
     5ae:	9902      	ldr	r1, [sp, #8]
     5b0:	9a03      	ldr	r2, [sp, #12]
     5b2:	4307      	orrs	r7, r0
     5b4:	1a64      	subs	r4, r4, r1
     5b6:	4195      	sbcs	r5, r2
     5b8:	9705      	str	r7, [sp, #20]
     5ba:	9f01      	ldr	r7, [sp, #4]
     5bc:	3f01      	subs	r7, #1
     5be:	9701      	str	r7, [sp, #4]
     5c0:	d2d6      	bcs.n	570 <_sercom_get_async_baud_val+0xc8>
     5c2:	9f05      	ldr	r7, [sp, #20]
     5c4:	4a0e      	ldr	r2, [pc, #56]	; (600 <_sercom_get_async_baud_val+0x158>)
     5c6:	1bbb      	subs	r3, r7, r6
     5c8:	08db      	lsrs	r3, r3, #3
     5ca:	4293      	cmp	r3, r2
     5cc:	d904      	bls.n	5d8 <_sercom_get_async_baud_val+0x130>
     5ce:	3601      	adds	r6, #1
     5d0:	2e08      	cmp	r6, #8
     5d2:	d1c5      	bne.n	560 <_sercom_get_async_baud_val+0xb8>
     5d4:	2340      	movs	r3, #64	; 0x40
     5d6:	e005      	b.n	5e4 <_sercom_get_async_baud_val+0x13c>
     5d8:	9f06      	ldr	r7, [sp, #24]
     5da:	037e      	lsls	r6, r7, #13
     5dc:	431e      	orrs	r6, r3
     5de:	9f07      	ldr	r7, [sp, #28]
     5e0:	2300      	movs	r3, #0
     5e2:	803e      	strh	r6, [r7, #0]
     5e4:	1c18      	adds	r0, r3, #0
     5e6:	b00b      	add	sp, #44	; 0x2c
     5e8:	bdf0      	pop	{r4, r5, r6, r7, pc}
     5ea:	46c0      	nop			; (mov r8, r8)
     5ec:	46c0      	nop			; (mov r8, r8)
     5ee:	46c0      	nop			; (mov r8, r8)
     5f0:	00000000 	.word	0x00000000
     5f4:	00000001 	.word	0x00000001
     5f8:	000027d5 	.word	0x000027d5
     5fc:	000027bd 	.word	0x000027bd
     600:	00001fff 	.word	0x00001fff
     604:	46c0      	nop			; (mov r8, r8)
     606:	46c0      	nop			; (mov r8, r8)

00000608 <sercom_set_gclk_generator>:
     608:	b537      	push	{r0, r1, r2, r4, r5, lr}
     60a:	4b0e      	ldr	r3, [pc, #56]	; (644 <sercom_set_gclk_generator+0x3c>)
     60c:	1c04      	adds	r4, r0, #0
     60e:	781a      	ldrb	r2, [r3, #0]
     610:	1c1d      	adds	r5, r3, #0
     612:	2a00      	cmp	r2, #0
     614:	d001      	beq.n	61a <sercom_set_gclk_generator+0x12>
     616:	2900      	cmp	r1, #0
     618:	d00c      	beq.n	634 <sercom_set_gclk_generator+0x2c>
     61a:	a901      	add	r1, sp, #4
     61c:	2013      	movs	r0, #19
     61e:	4b0a      	ldr	r3, [pc, #40]	; (648 <sercom_set_gclk_generator+0x40>)
     620:	700c      	strb	r4, [r1, #0]
     622:	4798      	blx	r3
     624:	2013      	movs	r0, #19
     626:	4b09      	ldr	r3, [pc, #36]	; (64c <sercom_set_gclk_generator+0x44>)
     628:	4798      	blx	r3
     62a:	2301      	movs	r3, #1
     62c:	706c      	strb	r4, [r5, #1]
     62e:	702b      	strb	r3, [r5, #0]
     630:	2000      	movs	r0, #0
     632:	e006      	b.n	642 <sercom_set_gclk_generator+0x3a>
     634:	785a      	ldrb	r2, [r3, #1]
     636:	201d      	movs	r0, #29
     638:	1b14      	subs	r4, r2, r4
     63a:	1e62      	subs	r2, r4, #1
     63c:	4194      	sbcs	r4, r2
     63e:	4264      	negs	r4, r4
     640:	4020      	ands	r0, r4
     642:	bd3e      	pop	{r1, r2, r3, r4, r5, pc}
     644:	200000ec 	.word	0x200000ec
     648:	00001b91 	.word	0x00001b91
     64c:	00001ab5 	.word	0x00001ab5

00000650 <_sercom_get_default_pad>:
     650:	4a40      	ldr	r2, [pc, #256]	; (754 <_sercom_get_default_pad+0x104>)
     652:	b513      	push	{r0, r1, r4, lr}
     654:	1c03      	adds	r3, r0, #0
     656:	1c08      	adds	r0, r1, #0
     658:	4293      	cmp	r3, r2
     65a:	d027      	beq.n	6ac <_sercom_get_default_pad+0x5c>
     65c:	d806      	bhi.n	66c <_sercom_get_default_pad+0x1c>
     65e:	4a3e      	ldr	r2, [pc, #248]	; (758 <_sercom_get_default_pad+0x108>)
     660:	4293      	cmp	r3, r2
     662:	d00d      	beq.n	680 <_sercom_get_default_pad+0x30>
     664:	4a3d      	ldr	r2, [pc, #244]	; (75c <_sercom_get_default_pad+0x10c>)
     666:	4293      	cmp	r3, r2
     668:	d014      	beq.n	694 <_sercom_get_default_pad+0x44>
     66a:	e04f      	b.n	70c <_sercom_get_default_pad+0xbc>
     66c:	4a3c      	ldr	r2, [pc, #240]	; (760 <_sercom_get_default_pad+0x110>)
     66e:	4293      	cmp	r3, r2
     670:	d034      	beq.n	6dc <_sercom_get_default_pad+0x8c>
     672:	4a3c      	ldr	r2, [pc, #240]	; (764 <_sercom_get_default_pad+0x114>)
     674:	4293      	cmp	r3, r2
     676:	d03d      	beq.n	6f4 <_sercom_get_default_pad+0xa4>
     678:	4a3b      	ldr	r2, [pc, #236]	; (768 <_sercom_get_default_pad+0x118>)
     67a:	4293      	cmp	r3, r2
     67c:	d146      	bne.n	70c <_sercom_get_default_pad+0xbc>
     67e:	e021      	b.n	6c4 <_sercom_get_default_pad+0x74>
     680:	2903      	cmp	r1, #3
     682:	d843      	bhi.n	70c <_sercom_get_default_pad+0xbc>
     684:	f002 f840 	bl	2708 <__gnu_thumb1_case_uqi>
     688:	04025a58 	.word	0x04025a58
     68c:	4837      	ldr	r0, [pc, #220]	; (76c <_sercom_get_default_pad+0x11c>)
     68e:	e060      	b.n	752 <_sercom_get_default_pad+0x102>
     690:	4837      	ldr	r0, [pc, #220]	; (770 <_sercom_get_default_pad+0x120>)
     692:	e05e      	b.n	752 <_sercom_get_default_pad+0x102>
     694:	2903      	cmp	r1, #3
     696:	d839      	bhi.n	70c <_sercom_get_default_pad+0xbc>
     698:	f002 f836 	bl	2708 <__gnu_thumb1_case_uqi>
     69c:	06045202 	.word	0x06045202
     6a0:	2003      	movs	r0, #3
     6a2:	e056      	b.n	752 <_sercom_get_default_pad+0x102>
     6a4:	4833      	ldr	r0, [pc, #204]	; (774 <_sercom_get_default_pad+0x124>)
     6a6:	e054      	b.n	752 <_sercom_get_default_pad+0x102>
     6a8:	4833      	ldr	r0, [pc, #204]	; (778 <_sercom_get_default_pad+0x128>)
     6aa:	e052      	b.n	752 <_sercom_get_default_pad+0x102>
     6ac:	2903      	cmp	r1, #3
     6ae:	d82d      	bhi.n	70c <_sercom_get_default_pad+0xbc>
     6b0:	f002 f82a 	bl	2708 <__gnu_thumb1_case_uqi>
     6b4:	06044802 	.word	0x06044802
     6b8:	4830      	ldr	r0, [pc, #192]	; (77c <_sercom_get_default_pad+0x12c>)
     6ba:	e04a      	b.n	752 <_sercom_get_default_pad+0x102>
     6bc:	4830      	ldr	r0, [pc, #192]	; (780 <_sercom_get_default_pad+0x130>)
     6be:	e048      	b.n	752 <_sercom_get_default_pad+0x102>
     6c0:	4830      	ldr	r0, [pc, #192]	; (784 <_sercom_get_default_pad+0x134>)
     6c2:	e046      	b.n	752 <_sercom_get_default_pad+0x102>
     6c4:	2903      	cmp	r1, #3
     6c6:	d821      	bhi.n	70c <_sercom_get_default_pad+0xbc>
     6c8:	f002 f81e 	bl	2708 <__gnu_thumb1_case_uqi>
     6cc:	06043e02 	.word	0x06043e02
     6d0:	482d      	ldr	r0, [pc, #180]	; (788 <_sercom_get_default_pad+0x138>)
     6d2:	e03e      	b.n	752 <_sercom_get_default_pad+0x102>
     6d4:	482d      	ldr	r0, [pc, #180]	; (78c <_sercom_get_default_pad+0x13c>)
     6d6:	e03c      	b.n	752 <_sercom_get_default_pad+0x102>
     6d8:	482d      	ldr	r0, [pc, #180]	; (790 <_sercom_get_default_pad+0x140>)
     6da:	e03a      	b.n	752 <_sercom_get_default_pad+0x102>
     6dc:	2903      	cmp	r1, #3
     6de:	d815      	bhi.n	70c <_sercom_get_default_pad+0xbc>
     6e0:	f002 f812 	bl	2708 <__gnu_thumb1_case_uqi>
     6e4:	06043402 	.word	0x06043402
     6e8:	482a      	ldr	r0, [pc, #168]	; (794 <_sercom_get_default_pad+0x144>)
     6ea:	e032      	b.n	752 <_sercom_get_default_pad+0x102>
     6ec:	482a      	ldr	r0, [pc, #168]	; (798 <_sercom_get_default_pad+0x148>)
     6ee:	e030      	b.n	752 <_sercom_get_default_pad+0x102>
     6f0:	482a      	ldr	r0, [pc, #168]	; (79c <_sercom_get_default_pad+0x14c>)
     6f2:	e02e      	b.n	752 <_sercom_get_default_pad+0x102>
     6f4:	2903      	cmp	r1, #3
     6f6:	d809      	bhi.n	70c <_sercom_get_default_pad+0xbc>
     6f8:	f002 f806 	bl	2708 <__gnu_thumb1_case_uqi>
     6fc:	06042a02 	.word	0x06042a02
     700:	4827      	ldr	r0, [pc, #156]	; (7a0 <_sercom_get_default_pad+0x150>)
     702:	e026      	b.n	752 <_sercom_get_default_pad+0x102>
     704:	4827      	ldr	r0, [pc, #156]	; (7a4 <_sercom_get_default_pad+0x154>)
     706:	e024      	b.n	752 <_sercom_get_default_pad+0x102>
     708:	4827      	ldr	r0, [pc, #156]	; (7a8 <_sercom_get_default_pad+0x158>)
     70a:	e022      	b.n	752 <_sercom_get_default_pad+0x102>
     70c:	4b27      	ldr	r3, [pc, #156]	; (7ac <_sercom_get_default_pad+0x15c>)
     70e:	4a28      	ldr	r2, [pc, #160]	; (7b0 <_sercom_get_default_pad+0x160>)
     710:	6818      	ldr	r0, [r3, #0]
     712:	4928      	ldr	r1, [pc, #160]	; (7b4 <_sercom_get_default_pad+0x164>)
     714:	2800      	cmp	r0, #0
     716:	d009      	beq.n	72c <_sercom_get_default_pad+0xdc>
     718:	4b27      	ldr	r3, [pc, #156]	; (7b8 <_sercom_get_default_pad+0x168>)
     71a:	9101      	str	r1, [sp, #4]
     71c:	9300      	str	r3, [sp, #0]
     71e:	2101      	movs	r1, #1
     720:	2386      	movs	r3, #134	; 0x86
     722:	408b      	lsls	r3, r1
     724:	4c25      	ldr	r4, [pc, #148]	; (7bc <_sercom_get_default_pad+0x16c>)
     726:	47a0      	blx	r4
     728:	2000      	movs	r0, #0
     72a:	e012      	b.n	752 <_sercom_get_default_pad+0x102>
     72c:	2386      	movs	r3, #134	; 0x86
     72e:	4824      	ldr	r0, [pc, #144]	; (7c0 <_sercom_get_default_pad+0x170>)
     730:	005b      	lsls	r3, r3, #1
     732:	4c24      	ldr	r4, [pc, #144]	; (7c4 <_sercom_get_default_pad+0x174>)
     734:	47a0      	blx	r4
     736:	e7fe      	b.n	736 <_sercom_get_default_pad+0xe6>
     738:	4823      	ldr	r0, [pc, #140]	; (7c8 <_sercom_get_default_pad+0x178>)
     73a:	e00a      	b.n	752 <_sercom_get_default_pad+0x102>
     73c:	4823      	ldr	r0, [pc, #140]	; (7cc <_sercom_get_default_pad+0x17c>)
     73e:	e008      	b.n	752 <_sercom_get_default_pad+0x102>
     740:	4823      	ldr	r0, [pc, #140]	; (7d0 <_sercom_get_default_pad+0x180>)
     742:	e006      	b.n	752 <_sercom_get_default_pad+0x102>
     744:	4823      	ldr	r0, [pc, #140]	; (7d4 <_sercom_get_default_pad+0x184>)
     746:	e004      	b.n	752 <_sercom_get_default_pad+0x102>
     748:	4823      	ldr	r0, [pc, #140]	; (7d8 <_sercom_get_default_pad+0x188>)
     74a:	e002      	b.n	752 <_sercom_get_default_pad+0x102>
     74c:	4823      	ldr	r0, [pc, #140]	; (7dc <_sercom_get_default_pad+0x18c>)
     74e:	e000      	b.n	752 <_sercom_get_default_pad+0x102>
     750:	4823      	ldr	r0, [pc, #140]	; (7e0 <_sercom_get_default_pad+0x190>)
     752:	bd16      	pop	{r1, r2, r4, pc}
     754:	42001000 	.word	0x42001000
     758:	42000800 	.word	0x42000800
     75c:	42000c00 	.word	0x42000c00
     760:	42001800 	.word	0x42001800
     764:	42001c00 	.word	0x42001c00
     768:	42001400 	.word	0x42001400
     76c:	00060003 	.word	0x00060003
     770:	00070003 	.word	0x00070003
     774:	001e0003 	.word	0x001e0003
     778:	001f0003 	.word	0x001f0003
     77c:	00080003 	.word	0x00080003
     780:	000a0003 	.word	0x000a0003
     784:	000b0003 	.word	0x000b0003
     788:	00100003 	.word	0x00100003
     78c:	00120003 	.word	0x00120003
     790:	00130003 	.word	0x00130003
     794:	000c0003 	.word	0x000c0003
     798:	000e0003 	.word	0x000e0003
     79c:	000f0003 	.word	0x000f0003
     7a0:	00160003 	.word	0x00160003
     7a4:	00180003 	.word	0x00180003
     7a8:	00190003 	.word	0x00190003
     7ac:	2000008c 	.word	0x2000008c
     7b0:	00003ac0 	.word	0x00003ac0
     7b4:	00003ae8 	.word	0x00003ae8
     7b8:	000038ff 	.word	0x000038ff
     7bc:	000001f5 	.word	0x000001f5
     7c0:	00003939 	.word	0x00003939
     7c4:	00002889 	.word	0x00002889
     7c8:	00040003 	.word	0x00040003
     7cc:	00050003 	.word	0x00050003
     7d0:	00010003 	.word	0x00010003
     7d4:	00090003 	.word	0x00090003
     7d8:	00110003 	.word	0x00110003
     7dc:	000d0003 	.word	0x000d0003
     7e0:	00170003 	.word	0x00170003

000007e4 <_sercom_get_sercom_inst_index>:
     7e4:	b570      	push	{r4, r5, r6, lr}
     7e6:	b088      	sub	sp, #32
     7e8:	aa02      	add	r2, sp, #8
     7ea:	4914      	ldr	r1, [pc, #80]	; (83c <_sercom_get_sercom_inst_index+0x58>)
     7ec:	1c13      	adds	r3, r2, #0
     7ee:	c970      	ldmia	r1!, {r4, r5, r6}
     7f0:	c370      	stmia	r3!, {r4, r5, r6}
     7f2:	c970      	ldmia	r1!, {r4, r5, r6}
     7f4:	c370      	stmia	r3!, {r4, r5, r6}
     7f6:	2300      	movs	r3, #0
     7f8:	0099      	lsls	r1, r3, #2
     7fa:	5851      	ldr	r1, [r2, r1]
     7fc:	4288      	cmp	r0, r1
     7fe:	d101      	bne.n	804 <_sercom_get_sercom_inst_index+0x20>
     800:	b2d8      	uxtb	r0, r3
     802:	e018      	b.n	836 <_sercom_get_sercom_inst_index+0x52>
     804:	3301      	adds	r3, #1
     806:	2b06      	cmp	r3, #6
     808:	d1f6      	bne.n	7f8 <_sercom_get_sercom_inst_index+0x14>
     80a:	4b0d      	ldr	r3, [pc, #52]	; (840 <_sercom_get_sercom_inst_index+0x5c>)
     80c:	4a0d      	ldr	r2, [pc, #52]	; (844 <_sercom_get_sercom_inst_index+0x60>)
     80e:	6818      	ldr	r0, [r3, #0]
     810:	490d      	ldr	r1, [pc, #52]	; (848 <_sercom_get_sercom_inst_index+0x64>)
     812:	2800      	cmp	r0, #0
     814:	d009      	beq.n	82a <_sercom_get_sercom_inst_index+0x46>
     816:	4b0d      	ldr	r3, [pc, #52]	; (84c <_sercom_get_sercom_inst_index+0x68>)
     818:	9101      	str	r1, [sp, #4]
     81a:	9300      	str	r3, [sp, #0]
     81c:	2101      	movs	r1, #1
     81e:	2393      	movs	r3, #147	; 0x93
     820:	408b      	lsls	r3, r1
     822:	4c0b      	ldr	r4, [pc, #44]	; (850 <_sercom_get_sercom_inst_index+0x6c>)
     824:	47a0      	blx	r4
     826:	2000      	movs	r0, #0
     828:	e005      	b.n	836 <_sercom_get_sercom_inst_index+0x52>
     82a:	2393      	movs	r3, #147	; 0x93
     82c:	4809      	ldr	r0, [pc, #36]	; (854 <_sercom_get_sercom_inst_index+0x70>)
     82e:	005b      	lsls	r3, r3, #1
     830:	4c09      	ldr	r4, [pc, #36]	; (858 <_sercom_get_sercom_inst_index+0x74>)
     832:	47a0      	blx	r4
     834:	e7fe      	b.n	834 <_sercom_get_sercom_inst_index+0x50>
     836:	b008      	add	sp, #32
     838:	bd70      	pop	{r4, r5, r6, pc}
     83a:	46c0      	nop			; (mov r8, r8)
     83c:	00003aa8 	.word	0x00003aa8
     840:	2000008c 	.word	0x2000008c
     844:	00003ac0 	.word	0x00003ac0
     848:	00003ae8 	.word	0x00003ae8
     84c:	000038ff 	.word	0x000038ff
     850:	000001f5 	.word	0x000001f5
     854:	00003939 	.word	0x00003939
     858:	00002889 	.word	0x00002889

0000085c <_sercom_default_handler>:
     85c:	b513      	push	{r0, r1, r4, lr}
     85e:	4b09      	ldr	r3, [pc, #36]	; (884 <_sercom_default_handler+0x28>)
     860:	4a09      	ldr	r2, [pc, #36]	; (888 <_sercom_default_handler+0x2c>)
     862:	6818      	ldr	r0, [r3, #0]
     864:	4909      	ldr	r1, [pc, #36]	; (88c <_sercom_default_handler+0x30>)
     866:	2800      	cmp	r0, #0
     868:	d007      	beq.n	87a <_sercom_default_handler+0x1e>
     86a:	4b09      	ldr	r3, [pc, #36]	; (890 <_sercom_default_handler+0x34>)
     86c:	9101      	str	r1, [sp, #4]
     86e:	9300      	str	r3, [sp, #0]
     870:	2101      	movs	r1, #1
     872:	2341      	movs	r3, #65	; 0x41
     874:	4c07      	ldr	r4, [pc, #28]	; (894 <_sercom_default_handler+0x38>)
     876:	47a0      	blx	r4
     878:	bd13      	pop	{r0, r1, r4, pc}
     87a:	4807      	ldr	r0, [pc, #28]	; (898 <_sercom_default_handler+0x3c>)
     87c:	2341      	movs	r3, #65	; 0x41
     87e:	4c07      	ldr	r4, [pc, #28]	; (89c <_sercom_default_handler+0x40>)
     880:	47a0      	blx	r4
     882:	e7fe      	b.n	882 <_sercom_default_handler+0x26>
     884:	2000008c 	.word	0x2000008c
     888:	00003af4 	.word	0x00003af4
     88c:	00003ae8 	.word	0x00003ae8
     890:	000038ff 	.word	0x000038ff
     894:	000001f5 	.word	0x000001f5
     898:	00003939 	.word	0x00003939
     89c:	00002889 	.word	0x00002889

000008a0 <_sercom_set_handler>:
     8a0:	b570      	push	{r4, r5, r6, lr}
     8a2:	4a0a      	ldr	r2, [pc, #40]	; (8cc <_sercom_set_handler+0x2c>)
     8a4:	7813      	ldrb	r3, [r2, #0]
     8a6:	1c14      	adds	r4, r2, #0
     8a8:	4a09      	ldr	r2, [pc, #36]	; (8d0 <_sercom_set_handler+0x30>)
     8aa:	2b00      	cmp	r3, #0
     8ac:	d10a      	bne.n	8c4 <_sercom_set_handler+0x24>
     8ae:	4d09      	ldr	r5, [pc, #36]	; (8d4 <_sercom_set_handler+0x34>)
     8b0:	2600      	movs	r6, #0
     8b2:	50d5      	str	r5, [r2, r3]
     8b4:	4d08      	ldr	r5, [pc, #32]	; (8d8 <_sercom_set_handler+0x38>)
     8b6:	195d      	adds	r5, r3, r5
     8b8:	3304      	adds	r3, #4
     8ba:	602e      	str	r6, [r5, #0]
     8bc:	2b18      	cmp	r3, #24
     8be:	d1f6      	bne.n	8ae <_sercom_set_handler+0xe>
     8c0:	2301      	movs	r3, #1
     8c2:	7023      	strb	r3, [r4, #0]
     8c4:	0080      	lsls	r0, r0, #2
     8c6:	5011      	str	r1, [r2, r0]
     8c8:	bd70      	pop	{r4, r5, r6, pc}
     8ca:	46c0      	nop			; (mov r8, r8)
     8cc:	200000ee 	.word	0x200000ee
     8d0:	200000f0 	.word	0x200000f0
     8d4:	0000085d 	.word	0x0000085d
     8d8:	2000012c 	.word	0x2000012c

000008dc <_sercom_get_interrupt_vector>:
     8dc:	b513      	push	{r0, r1, r4, lr}
     8de:	2206      	movs	r2, #6
     8e0:	1c04      	adds	r4, r0, #0
     8e2:	4905      	ldr	r1, [pc, #20]	; (8f8 <_sercom_get_interrupt_vector+0x1c>)
     8e4:	4668      	mov	r0, sp
     8e6:	4b05      	ldr	r3, [pc, #20]	; (8fc <_sercom_get_interrupt_vector+0x20>)
     8e8:	4798      	blx	r3
     8ea:	1c20      	adds	r0, r4, #0
     8ec:	4b04      	ldr	r3, [pc, #16]	; (900 <_sercom_get_interrupt_vector+0x24>)
     8ee:	4798      	blx	r3
     8f0:	466b      	mov	r3, sp
     8f2:	5618      	ldrsb	r0, [r3, r0]
     8f4:	bd16      	pop	{r1, r2, r4, pc}
     8f6:	46c0      	nop			; (mov r8, r8)
     8f8:	00003aee 	.word	0x00003aee
     8fc:	00002865 	.word	0x00002865
     900:	000007e5 	.word	0x000007e5

00000904 <SERCOM0_Handler>:
     904:	b508      	push	{r3, lr}
     906:	4b02      	ldr	r3, [pc, #8]	; (910 <SERCOM0_Handler+0xc>)
     908:	2000      	movs	r0, #0
     90a:	681b      	ldr	r3, [r3, #0]
     90c:	4798      	blx	r3
     90e:	bd08      	pop	{r3, pc}
     910:	200000f0 	.word	0x200000f0

00000914 <SERCOM1_Handler>:
     914:	b508      	push	{r3, lr}
     916:	4b02      	ldr	r3, [pc, #8]	; (920 <SERCOM1_Handler+0xc>)
     918:	2001      	movs	r0, #1
     91a:	685b      	ldr	r3, [r3, #4]
     91c:	4798      	blx	r3
     91e:	bd08      	pop	{r3, pc}
     920:	200000f0 	.word	0x200000f0

00000924 <SERCOM2_Handler>:
     924:	b508      	push	{r3, lr}
     926:	4b02      	ldr	r3, [pc, #8]	; (930 <SERCOM2_Handler+0xc>)
     928:	2002      	movs	r0, #2
     92a:	689b      	ldr	r3, [r3, #8]
     92c:	4798      	blx	r3
     92e:	bd08      	pop	{r3, pc}
     930:	200000f0 	.word	0x200000f0

00000934 <SERCOM3_Handler>:
     934:	b508      	push	{r3, lr}
     936:	4b02      	ldr	r3, [pc, #8]	; (940 <SERCOM3_Handler+0xc>)
     938:	2003      	movs	r0, #3
     93a:	68db      	ldr	r3, [r3, #12]
     93c:	4798      	blx	r3
     93e:	bd08      	pop	{r3, pc}
     940:	200000f0 	.word	0x200000f0

00000944 <SERCOM4_Handler>:
     944:	b508      	push	{r3, lr}
     946:	4b02      	ldr	r3, [pc, #8]	; (950 <SERCOM4_Handler+0xc>)
     948:	2004      	movs	r0, #4
     94a:	691b      	ldr	r3, [r3, #16]
     94c:	4798      	blx	r3
     94e:	bd08      	pop	{r3, pc}
     950:	200000f0 	.word	0x200000f0

00000954 <SERCOM5_Handler>:
     954:	b508      	push	{r3, lr}
     956:	4b02      	ldr	r3, [pc, #8]	; (960 <SERCOM5_Handler+0xc>)
     958:	2005      	movs	r0, #5
     95a:	695b      	ldr	r3, [r3, #20]
     95c:	4798      	blx	r3
     95e:	bd08      	pop	{r3, pc}
     960:	200000f0 	.word	0x200000f0

00000964 <_usart_wait_for_sync>:
     964:	b573      	push	{r0, r1, r4, r5, r6, lr}
     966:	4d28      	ldr	r5, [pc, #160]	; (a08 <_usart_wait_for_sync+0xa4>)
     968:	1c04      	adds	r4, r0, #0
     96a:	6828      	ldr	r0, [r5, #0]
     96c:	2800      	cmp	r0, #0
     96e:	d00b      	beq.n	988 <_usart_wait_for_sync+0x24>
     970:	2c00      	cmp	r4, #0
     972:	d112      	bne.n	99a <_usart_wait_for_sync+0x36>
     974:	4b25      	ldr	r3, [pc, #148]	; (a0c <_usart_wait_for_sync+0xa8>)
     976:	2101      	movs	r1, #1
     978:	9300      	str	r3, [sp, #0]
     97a:	4b25      	ldr	r3, [pc, #148]	; (a10 <_usart_wait_for_sync+0xac>)
     97c:	4a25      	ldr	r2, [pc, #148]	; (a14 <_usart_wait_for_sync+0xb0>)
     97e:	9301      	str	r3, [sp, #4]
     980:	4e25      	ldr	r6, [pc, #148]	; (a18 <_usart_wait_for_sync+0xb4>)
     982:	4b26      	ldr	r3, [pc, #152]	; (a1c <_usart_wait_for_sync+0xb8>)
     984:	47b0      	blx	r6
     986:	e008      	b.n	99a <_usart_wait_for_sync+0x36>
     988:	2c00      	cmp	r4, #0
     98a:	d106      	bne.n	99a <_usart_wait_for_sync+0x36>
     98c:	4824      	ldr	r0, [pc, #144]	; (a20 <_usart_wait_for_sync+0xbc>)
     98e:	4920      	ldr	r1, [pc, #128]	; (a10 <_usart_wait_for_sync+0xac>)
     990:	4a20      	ldr	r2, [pc, #128]	; (a14 <_usart_wait_for_sync+0xb0>)
     992:	4b22      	ldr	r3, [pc, #136]	; (a1c <_usart_wait_for_sync+0xb8>)
     994:	4c23      	ldr	r4, [pc, #140]	; (a24 <_usart_wait_for_sync+0xc0>)
     996:	47a0      	blx	r4
     998:	e7fe      	b.n	998 <_usart_wait_for_sync+0x34>
     99a:	6828      	ldr	r0, [r5, #0]
     99c:	2800      	cmp	r0, #0
     99e:	d00b      	beq.n	9b8 <_usart_wait_for_sync+0x54>
     9a0:	2c00      	cmp	r4, #0
     9a2:	d112      	bne.n	9ca <_usart_wait_for_sync+0x66>
     9a4:	4b19      	ldr	r3, [pc, #100]	; (a0c <_usart_wait_for_sync+0xa8>)
     9a6:	2101      	movs	r1, #1
     9a8:	9300      	str	r3, [sp, #0]
     9aa:	4b19      	ldr	r3, [pc, #100]	; (a10 <_usart_wait_for_sync+0xac>)
     9ac:	4a19      	ldr	r2, [pc, #100]	; (a14 <_usart_wait_for_sync+0xb0>)
     9ae:	9301      	str	r3, [sp, #4]
     9b0:	4e19      	ldr	r6, [pc, #100]	; (a18 <_usart_wait_for_sync+0xb4>)
     9b2:	4b1d      	ldr	r3, [pc, #116]	; (a28 <_usart_wait_for_sync+0xc4>)
     9b4:	47b0      	blx	r6
     9b6:	e008      	b.n	9ca <_usart_wait_for_sync+0x66>
     9b8:	2c00      	cmp	r4, #0
     9ba:	d106      	bne.n	9ca <_usart_wait_for_sync+0x66>
     9bc:	4818      	ldr	r0, [pc, #96]	; (a20 <_usart_wait_for_sync+0xbc>)
     9be:	4914      	ldr	r1, [pc, #80]	; (a10 <_usart_wait_for_sync+0xac>)
     9c0:	4a14      	ldr	r2, [pc, #80]	; (a14 <_usart_wait_for_sync+0xb0>)
     9c2:	4b19      	ldr	r3, [pc, #100]	; (a28 <_usart_wait_for_sync+0xc4>)
     9c4:	4c17      	ldr	r4, [pc, #92]	; (a24 <_usart_wait_for_sync+0xc0>)
     9c6:	47a0      	blx	r4
     9c8:	e7fe      	b.n	9c8 <_usart_wait_for_sync+0x64>
     9ca:	6828      	ldr	r0, [r5, #0]
     9cc:	6823      	ldr	r3, [r4, #0]
     9ce:	2800      	cmp	r0, #0
     9d0:	d00b      	beq.n	9ea <_usart_wait_for_sync+0x86>
     9d2:	2b00      	cmp	r3, #0
     9d4:	d112      	bne.n	9fc <_usart_wait_for_sync+0x98>
     9d6:	4b0d      	ldr	r3, [pc, #52]	; (a0c <_usart_wait_for_sync+0xa8>)
     9d8:	2101      	movs	r1, #1
     9da:	9300      	str	r3, [sp, #0]
     9dc:	4b13      	ldr	r3, [pc, #76]	; (a2c <_usart_wait_for_sync+0xc8>)
     9de:	4a0d      	ldr	r2, [pc, #52]	; (a14 <_usart_wait_for_sync+0xb0>)
     9e0:	9301      	str	r3, [sp, #4]
     9e2:	4e0d      	ldr	r6, [pc, #52]	; (a18 <_usart_wait_for_sync+0xb4>)
     9e4:	4b12      	ldr	r3, [pc, #72]	; (a30 <_usart_wait_for_sync+0xcc>)
     9e6:	47b0      	blx	r6
     9e8:	e008      	b.n	9fc <_usart_wait_for_sync+0x98>
     9ea:	2b00      	cmp	r3, #0
     9ec:	d106      	bne.n	9fc <_usart_wait_for_sync+0x98>
     9ee:	480c      	ldr	r0, [pc, #48]	; (a20 <_usart_wait_for_sync+0xbc>)
     9f0:	490e      	ldr	r1, [pc, #56]	; (a2c <_usart_wait_for_sync+0xc8>)
     9f2:	4a08      	ldr	r2, [pc, #32]	; (a14 <_usart_wait_for_sync+0xb0>)
     9f4:	4b0e      	ldr	r3, [pc, #56]	; (a30 <_usart_wait_for_sync+0xcc>)
     9f6:	4c0b      	ldr	r4, [pc, #44]	; (a24 <_usart_wait_for_sync+0xc0>)
     9f8:	47a0      	blx	r4
     9fa:	e7fe      	b.n	9fa <_usart_wait_for_sync+0x96>
     9fc:	6823      	ldr	r3, [r4, #0]
     9fe:	69db      	ldr	r3, [r3, #28]
     a00:	2b00      	cmp	r3, #0
     a02:	d1ca      	bne.n	99a <_usart_wait_for_sync+0x36>
     a04:	bd73      	pop	{r0, r1, r4, r5, r6, pc}
     a06:	46c0      	nop			; (mov r8, r8)
     a08:	2000008c 	.word	0x2000008c
     a0c:	000038ff 	.word	0x000038ff
     a10:	00003b53 	.word	0x00003b53
     a14:	00003b26 	.word	0x00003b26
     a18:	000001f5 	.word	0x000001f5
     a1c:	000002fe 	.word	0x000002fe
     a20:	00003939 	.word	0x00003939
     a24:	00002889 	.word	0x00002889
     a28:	000002e9 	.word	0x000002e9
     a2c:	00003b5a 	.word	0x00003b5a
     a30:	000002ea 	.word	0x000002ea

00000a34 <usart_init>:
     a34:	b5f0      	push	{r4, r5, r6, r7, lr}
     a36:	4eaa      	ldr	r6, [pc, #680]	; (ce0 <usart_init+0x2ac>)
     a38:	1c07      	adds	r7, r0, #0
     a3a:	6830      	ldr	r0, [r6, #0]
     a3c:	b093      	sub	sp, #76	; 0x4c
     a3e:	9105      	str	r1, [sp, #20]
     a40:	1c14      	adds	r4, r2, #0
     a42:	2800      	cmp	r0, #0
     a44:	d00c      	beq.n	a60 <usart_init+0x2c>
     a46:	2f00      	cmp	r7, #0
     a48:	d114      	bne.n	a74 <usart_init+0x40>
     a4a:	4ba6      	ldr	r3, [pc, #664]	; (ce4 <usart_init+0x2b0>)
     a4c:	2101      	movs	r1, #1
     a4e:	9300      	str	r3, [sp, #0]
     a50:	4ba5      	ldr	r3, [pc, #660]	; (ce8 <usart_init+0x2b4>)
     a52:	4aa6      	ldr	r2, [pc, #664]	; (cec <usart_init+0x2b8>)
     a54:	9301      	str	r3, [sp, #4]
     a56:	2383      	movs	r3, #131	; 0x83
     a58:	408b      	lsls	r3, r1
     a5a:	4da5      	ldr	r5, [pc, #660]	; (cf0 <usart_init+0x2bc>)
     a5c:	47a8      	blx	r5
     a5e:	e009      	b.n	a74 <usart_init+0x40>
     a60:	2f00      	cmp	r7, #0
     a62:	d107      	bne.n	a74 <usart_init+0x40>
     a64:	2383      	movs	r3, #131	; 0x83
     a66:	48a3      	ldr	r0, [pc, #652]	; (cf4 <usart_init+0x2c0>)
     a68:	499f      	ldr	r1, [pc, #636]	; (ce8 <usart_init+0x2b4>)
     a6a:	4aa0      	ldr	r2, [pc, #640]	; (cec <usart_init+0x2b8>)
     a6c:	005b      	lsls	r3, r3, #1
     a6e:	4ca2      	ldr	r4, [pc, #648]	; (cf8 <usart_init+0x2c4>)
     a70:	47a0      	blx	r4
     a72:	e7fe      	b.n	a72 <usart_init+0x3e>
     a74:	6830      	ldr	r0, [r6, #0]
     a76:	2800      	cmp	r0, #0
     a78:	d00d      	beq.n	a96 <usart_init+0x62>
     a7a:	9905      	ldr	r1, [sp, #20]
     a7c:	2900      	cmp	r1, #0
     a7e:	d115      	bne.n	aac <usart_init+0x78>
     a80:	4b98      	ldr	r3, [pc, #608]	; (ce4 <usart_init+0x2b0>)
     a82:	2101      	movs	r1, #1
     a84:	9300      	str	r3, [sp, #0]
     a86:	4b9d      	ldr	r3, [pc, #628]	; (cfc <usart_init+0x2c8>)
     a88:	4a98      	ldr	r2, [pc, #608]	; (cec <usart_init+0x2b8>)
     a8a:	9301      	str	r3, [sp, #4]
     a8c:	2308      	movs	r3, #8
     a8e:	33ff      	adds	r3, #255	; 0xff
     a90:	4d97      	ldr	r5, [pc, #604]	; (cf0 <usart_init+0x2bc>)
     a92:	47a8      	blx	r5
     a94:	e00a      	b.n	aac <usart_init+0x78>
     a96:	9a05      	ldr	r2, [sp, #20]
     a98:	2a00      	cmp	r2, #0
     a9a:	d107      	bne.n	aac <usart_init+0x78>
     a9c:	2308      	movs	r3, #8
     a9e:	4895      	ldr	r0, [pc, #596]	; (cf4 <usart_init+0x2c0>)
     aa0:	4996      	ldr	r1, [pc, #600]	; (cfc <usart_init+0x2c8>)
     aa2:	4a92      	ldr	r2, [pc, #584]	; (cec <usart_init+0x2b8>)
     aa4:	33ff      	adds	r3, #255	; 0xff
     aa6:	4c94      	ldr	r4, [pc, #592]	; (cf8 <usart_init+0x2c4>)
     aa8:	47a0      	blx	r4
     aaa:	e7fe      	b.n	aaa <usart_init+0x76>
     aac:	6830      	ldr	r0, [r6, #0]
     aae:	2800      	cmp	r0, #0
     ab0:	d00c      	beq.n	acc <usart_init+0x98>
     ab2:	2c00      	cmp	r4, #0
     ab4:	d114      	bne.n	ae0 <usart_init+0xac>
     ab6:	4b8b      	ldr	r3, [pc, #556]	; (ce4 <usart_init+0x2b0>)
     ab8:	2101      	movs	r1, #1
     aba:	9300      	str	r3, [sp, #0]
     abc:	4b90      	ldr	r3, [pc, #576]	; (d00 <usart_init+0x2cc>)
     abe:	4a8b      	ldr	r2, [pc, #556]	; (cec <usart_init+0x2b8>)
     ac0:	9301      	str	r3, [sp, #4]
     ac2:	2384      	movs	r3, #132	; 0x84
     ac4:	408b      	lsls	r3, r1
     ac6:	4d8a      	ldr	r5, [pc, #552]	; (cf0 <usart_init+0x2bc>)
     ac8:	47a8      	blx	r5
     aca:	e009      	b.n	ae0 <usart_init+0xac>
     acc:	2c00      	cmp	r4, #0
     ace:	d107      	bne.n	ae0 <usart_init+0xac>
     ad0:	2384      	movs	r3, #132	; 0x84
     ad2:	4888      	ldr	r0, [pc, #544]	; (cf4 <usart_init+0x2c0>)
     ad4:	498a      	ldr	r1, [pc, #552]	; (d00 <usart_init+0x2cc>)
     ad6:	4a85      	ldr	r2, [pc, #532]	; (cec <usart_init+0x2b8>)
     ad8:	005b      	lsls	r3, r3, #1
     ada:	4c87      	ldr	r4, [pc, #540]	; (cf8 <usart_init+0x2c4>)
     adc:	47a0      	blx	r4
     ade:	e7fe      	b.n	ade <usart_init+0xaa>
     ae0:	9b05      	ldr	r3, [sp, #20]
     ae2:	2501      	movs	r5, #1
     ae4:	603b      	str	r3, [r7, #0]
     ae6:	1c18      	adds	r0, r3, #0
     ae8:	4b86      	ldr	r3, [pc, #536]	; (d04 <usart_init+0x2d0>)
     aea:	4798      	blx	r3
     aec:	9905      	ldr	r1, [sp, #20]
     aee:	2205      	movs	r2, #5
     af0:	680b      	ldr	r3, [r1, #0]
     af2:	9203      	str	r2, [sp, #12]
     af4:	422b      	tst	r3, r5
     af6:	d000      	beq.n	afa <usart_init+0xc6>
     af8:	e172      	b.n	de0 <usart_init+0x3ac>
     afa:	680a      	ldr	r2, [r1, #0]
     afc:	2302      	movs	r3, #2
     afe:	401a      	ands	r2, r3
     b00:	231c      	movs	r3, #28
     b02:	9204      	str	r2, [sp, #16]
     b04:	9303      	str	r3, [sp, #12]
     b06:	2a00      	cmp	r2, #0
     b08:	d000      	beq.n	b0c <usart_init+0xd8>
     b0a:	e169      	b.n	de0 <usart_init+0x3ac>
     b0c:	4b7e      	ldr	r3, [pc, #504]	; (d08 <usart_init+0x2d4>)
     b0e:	1c82      	adds	r2, r0, #2
     b10:	6a19      	ldr	r1, [r3, #32]
     b12:	9103      	str	r1, [sp, #12]
     b14:	1c29      	adds	r1, r5, #0
     b16:	4091      	lsls	r1, r2
     b18:	1c0a      	adds	r2, r1, #0
     b1a:	9903      	ldr	r1, [sp, #12]
     b1c:	430a      	orrs	r2, r1
     b1e:	621a      	str	r2, [r3, #32]
     b20:	1c22      	adds	r2, r4, #0
     b22:	322d      	adds	r2, #45	; 0x2d
     b24:	9206      	str	r2, [sp, #24]
     b26:	7813      	ldrb	r3, [r2, #0]
     b28:	a90c      	add	r1, sp, #48	; 0x30
     b2a:	700b      	strb	r3, [r1, #0]
     b2c:	1c03      	adds	r3, r0, #0
     b2e:	3314      	adds	r3, #20
     b30:	b2db      	uxtb	r3, r3
     b32:	1c18      	adds	r0, r3, #0
     b34:	9303      	str	r3, [sp, #12]
     b36:	4b75      	ldr	r3, [pc, #468]	; (d0c <usart_init+0x2d8>)
     b38:	4798      	blx	r3
     b3a:	9803      	ldr	r0, [sp, #12]
     b3c:	4b74      	ldr	r3, [pc, #464]	; (d10 <usart_init+0x2dc>)
     b3e:	4798      	blx	r3
     b40:	9b06      	ldr	r3, [sp, #24]
     b42:	9904      	ldr	r1, [sp, #16]
     b44:	7818      	ldrb	r0, [r3, #0]
     b46:	4b73      	ldr	r3, [pc, #460]	; (d14 <usart_init+0x2e0>)
     b48:	4798      	blx	r3
     b4a:	7ae3      	ldrb	r3, [r4, #11]
     b4c:	6830      	ldr	r0, [r6, #0]
     b4e:	717b      	strb	r3, [r7, #5]
     b50:	1d63      	adds	r3, r4, #5
     b52:	7fdb      	ldrb	r3, [r3, #31]
     b54:	71bb      	strb	r3, [r7, #6]
     b56:	1da3      	adds	r3, r4, #6
     b58:	7fdb      	ldrb	r3, [r3, #31]
     b5a:	71fb      	strb	r3, [r7, #7]
     b5c:	7ee3      	ldrb	r3, [r4, #27]
     b5e:	723b      	strb	r3, [r7, #8]
     b60:	7f23      	ldrb	r3, [r4, #28]
     b62:	727b      	strb	r3, [r7, #9]
     b64:	683b      	ldr	r3, [r7, #0]
     b66:	2800      	cmp	r0, #0
     b68:	d00b      	beq.n	b82 <usart_init+0x14e>
     b6a:	2b00      	cmp	r3, #0
     b6c:	d112      	bne.n	b94 <usart_init+0x160>
     b6e:	4b5d      	ldr	r3, [pc, #372]	; (ce4 <usart_init+0x2b0>)
     b70:	1c29      	adds	r1, r5, #0
     b72:	9300      	str	r3, [sp, #0]
     b74:	4b68      	ldr	r3, [pc, #416]	; (d18 <usart_init+0x2e4>)
     b76:	4a5d      	ldr	r2, [pc, #372]	; (cec <usart_init+0x2b8>)
     b78:	9301      	str	r3, [sp, #4]
     b7a:	4d5d      	ldr	r5, [pc, #372]	; (cf0 <usart_init+0x2bc>)
     b7c:	233e      	movs	r3, #62	; 0x3e
     b7e:	47a8      	blx	r5
     b80:	e008      	b.n	b94 <usart_init+0x160>
     b82:	2b00      	cmp	r3, #0
     b84:	d106      	bne.n	b94 <usart_init+0x160>
     b86:	485b      	ldr	r0, [pc, #364]	; (cf4 <usart_init+0x2c0>)
     b88:	4963      	ldr	r1, [pc, #396]	; (d18 <usart_init+0x2e4>)
     b8a:	4a58      	ldr	r2, [pc, #352]	; (cec <usart_init+0x2b8>)
     b8c:	233e      	movs	r3, #62	; 0x3e
     b8e:	4c5a      	ldr	r4, [pc, #360]	; (cf8 <usart_init+0x2c4>)
     b90:	47a0      	blx	r4
     b92:	e7fe      	b.n	b92 <usart_init+0x15e>
     b94:	6839      	ldr	r1, [r7, #0]
     b96:	4b5b      	ldr	r3, [pc, #364]	; (d04 <usart_init+0x2d0>)
     b98:	1c08      	adds	r0, r1, #0
     b9a:	9104      	str	r1, [sp, #16]
     b9c:	4798      	blx	r3
     b9e:	ab0e      	add	r3, sp, #56	; 0x38
     ba0:	2200      	movs	r2, #0
     ba2:	801a      	strh	r2, [r3, #0]
     ba4:	8a26      	ldrh	r6, [r4, #16]
     ba6:	2380      	movs	r3, #128	; 0x80
     ba8:	3014      	adds	r0, #20
     baa:	01db      	lsls	r3, r3, #7
     bac:	429e      	cmp	r6, r3
     bae:	d011      	beq.n	bd4 <usart_init+0x1a0>
     bb0:	d806      	bhi.n	bc0 <usart_init+0x18c>
     bb2:	2380      	movs	r3, #128	; 0x80
     bb4:	019b      	lsls	r3, r3, #6
     bb6:	429e      	cmp	r6, r3
     bb8:	d113      	bne.n	be2 <usart_init+0x1ae>
     bba:	2510      	movs	r5, #16
     bbc:	2201      	movs	r2, #1
     bbe:	e00a      	b.n	bd6 <usart_init+0x1a2>
     bc0:	23c0      	movs	r3, #192	; 0xc0
     bc2:	01db      	lsls	r3, r3, #7
     bc4:	429e      	cmp	r6, r3
     bc6:	d008      	beq.n	bda <usart_init+0x1a6>
     bc8:	2380      	movs	r3, #128	; 0x80
     bca:	021b      	lsls	r3, r3, #8
     bcc:	2503      	movs	r5, #3
     bce:	429e      	cmp	r6, r3
     bd0:	d001      	beq.n	bd6 <usart_init+0x1a2>
     bd2:	e006      	b.n	be2 <usart_init+0x1ae>
     bd4:	2508      	movs	r5, #8
     bd6:	9203      	str	r2, [sp, #12]
     bd8:	e006      	b.n	be8 <usart_init+0x1b4>
     bda:	2301      	movs	r3, #1
     bdc:	2508      	movs	r5, #8
     bde:	9303      	str	r3, [sp, #12]
     be0:	e002      	b.n	be8 <usart_init+0x1b4>
     be2:	2100      	movs	r1, #0
     be4:	2510      	movs	r5, #16
     be6:	9103      	str	r1, [sp, #12]
     be8:	6822      	ldr	r2, [r4, #0]
     bea:	68e3      	ldr	r3, [r4, #12]
     bec:	6961      	ldr	r1, [r4, #20]
     bee:	9308      	str	r3, [sp, #32]
     bf0:	9207      	str	r2, [sp, #28]
     bf2:	9109      	str	r1, [sp, #36]	; 0x24
     bf4:	7e22      	ldrb	r2, [r4, #24]
     bf6:	1de3      	adds	r3, r4, #7
     bf8:	920a      	str	r2, [sp, #40]	; 0x28
     bfa:	7fdb      	ldrb	r3, [r3, #31]
     bfc:	6862      	ldr	r2, [r4, #4]
     bfe:	930b      	str	r3, [sp, #44]	; 0x2c
     c00:	1c23      	adds	r3, r4, #0
     c02:	3308      	adds	r3, #8
     c04:	2a00      	cmp	r2, #0
     c06:	d010      	beq.n	c2a <usart_init+0x1f6>
     c08:	2180      	movs	r1, #128	; 0x80
     c0a:	0549      	lsls	r1, r1, #21
     c0c:	428a      	cmp	r2, r1
     c0e:	d123      	bne.n	c58 <usart_init+0x224>
     c10:	7fdb      	ldrb	r3, [r3, #31]
     c12:	2b00      	cmp	r3, #0
     c14:	d120      	bne.n	c58 <usart_init+0x224>
     c16:	4b41      	ldr	r3, [pc, #260]	; (d1c <usart_init+0x2e8>)
     c18:	b2c0      	uxtb	r0, r0
     c1a:	6a25      	ldr	r5, [r4, #32]
     c1c:	4798      	blx	r3
     c1e:	aa0e      	add	r2, sp, #56	; 0x38
     c20:	1c01      	adds	r1, r0, #0
     c22:	4b3f      	ldr	r3, [pc, #252]	; (d20 <usart_init+0x2ec>)
     c24:	1c28      	adds	r0, r5, #0
     c26:	4798      	blx	r3
     c28:	e012      	b.n	c50 <usart_init+0x21c>
     c2a:	7fdb      	ldrb	r3, [r3, #31]
     c2c:	6a21      	ldr	r1, [r4, #32]
     c2e:	9106      	str	r1, [sp, #24]
     c30:	2b00      	cmp	r3, #0
     c32:	d003      	beq.n	c3c <usart_init+0x208>
     c34:	9500      	str	r5, [sp, #0]
     c36:	1c08      	adds	r0, r1, #0
     c38:	6aa1      	ldr	r1, [r4, #40]	; 0x28
     c3a:	e005      	b.n	c48 <usart_init+0x214>
     c3c:	b2c0      	uxtb	r0, r0
     c3e:	4b37      	ldr	r3, [pc, #220]	; (d1c <usart_init+0x2e8>)
     c40:	4798      	blx	r3
     c42:	1c01      	adds	r1, r0, #0
     c44:	9806      	ldr	r0, [sp, #24]
     c46:	9500      	str	r5, [sp, #0]
     c48:	aa0e      	add	r2, sp, #56	; 0x38
     c4a:	9b03      	ldr	r3, [sp, #12]
     c4c:	4d35      	ldr	r5, [pc, #212]	; (d24 <usart_init+0x2f0>)
     c4e:	47a8      	blx	r5
     c50:	9003      	str	r0, [sp, #12]
     c52:	2800      	cmp	r0, #0
     c54:	d000      	beq.n	c58 <usart_init+0x224>
     c56:	e0c3      	b.n	de0 <usart_init+0x3ac>
     c58:	7e63      	ldrb	r3, [r4, #25]
     c5a:	2b00      	cmp	r3, #0
     c5c:	d002      	beq.n	c64 <usart_init+0x230>
     c5e:	7ea3      	ldrb	r3, [r4, #26]
     c60:	9a04      	ldr	r2, [sp, #16]
     c62:	7393      	strb	r3, [r2, #14]
     c64:	4b30      	ldr	r3, [pc, #192]	; (d28 <usart_init+0x2f4>)
     c66:	1c38      	adds	r0, r7, #0
     c68:	4798      	blx	r3
     c6a:	ab0e      	add	r3, sp, #56	; 0x38
     c6c:	881b      	ldrh	r3, [r3, #0]
     c6e:	9904      	ldr	r1, [sp, #16]
     c70:	9a07      	ldr	r2, [sp, #28]
     c72:	9d08      	ldr	r5, [sp, #32]
     c74:	818b      	strh	r3, [r1, #12]
     c76:	9b09      	ldr	r3, [sp, #36]	; 0x24
     c78:	4315      	orrs	r5, r2
     c7a:	6861      	ldr	r1, [r4, #4]
     c7c:	431d      	orrs	r5, r3
     c7e:	9a0a      	ldr	r2, [sp, #40]	; 0x28
     c80:	430d      	orrs	r5, r1
     c82:	990b      	ldr	r1, [sp, #44]	; 0x2c
     c84:	0213      	lsls	r3, r2, #8
     c86:	4335      	orrs	r5, r6
     c88:	431d      	orrs	r5, r3
     c8a:	074b      	lsls	r3, r1, #29
     c8c:	431d      	orrs	r5, r3
     c8e:	1c23      	adds	r3, r4, #0
     c90:	3308      	adds	r3, #8
     c92:	7fdb      	ldrb	r3, [r3, #31]
     c94:	2b00      	cmp	r3, #0
     c96:	d101      	bne.n	c9c <usart_init+0x268>
     c98:	2304      	movs	r3, #4
     c9a:	431d      	orrs	r5, r3
     c9c:	7e66      	ldrb	r6, [r4, #25]
     c9e:	7f23      	ldrb	r3, [r4, #28]
     ca0:	02b6      	lsls	r6, r6, #10
     ca2:	025b      	lsls	r3, r3, #9
     ca4:	431e      	orrs	r6, r3
     ca6:	7ae2      	ldrb	r2, [r4, #11]
     ca8:	7aa3      	ldrb	r3, [r4, #10]
     caa:	4313      	orrs	r3, r2
     cac:	431e      	orrs	r6, r3
     cae:	7f63      	ldrb	r3, [r4, #29]
     cb0:	8922      	ldrh	r2, [r4, #8]
     cb2:	021b      	lsls	r3, r3, #8
     cb4:	431e      	orrs	r6, r3
     cb6:	1d63      	adds	r3, r4, #5
     cb8:	7fdb      	ldrb	r3, [r3, #31]
     cba:	045b      	lsls	r3, r3, #17
     cbc:	431e      	orrs	r6, r3
     cbe:	1da3      	adds	r3, r4, #6
     cc0:	7fdb      	ldrb	r3, [r3, #31]
     cc2:	041b      	lsls	r3, r3, #16
     cc4:	431e      	orrs	r6, r3
     cc6:	7ee3      	ldrb	r3, [r4, #27]
     cc8:	2aff      	cmp	r2, #255	; 0xff
     cca:	d02f      	beq.n	d2c <usart_init+0x2f8>
     ccc:	2b00      	cmp	r3, #0
     cce:	d002      	beq.n	cd6 <usart_init+0x2a2>
     cd0:	23a0      	movs	r3, #160	; 0xa0
     cd2:	04db      	lsls	r3, r3, #19
     cd4:	e001      	b.n	cda <usart_init+0x2a6>
     cd6:	2380      	movs	r3, #128	; 0x80
     cd8:	045b      	lsls	r3, r3, #17
     cda:	431d      	orrs	r5, r3
     cdc:	4316      	orrs	r6, r2
     cde:	e02a      	b.n	d36 <usart_init+0x302>
     ce0:	2000008c 	.word	0x2000008c
     ce4:	000038ff 	.word	0x000038ff
     ce8:	00003b53 	.word	0x00003b53
     cec:	00003b65 	.word	0x00003b65
     cf0:	000001f5 	.word	0x000001f5
     cf4:	00003939 	.word	0x00003939
     cf8:	00002889 	.word	0x00002889
     cfc:	00003b62 	.word	0x00003b62
     d00:	00003a46 	.word	0x00003a46
     d04:	000007e5 	.word	0x000007e5
     d08:	40000400 	.word	0x40000400
     d0c:	00001b91 	.word	0x00001b91
     d10:	00001ab5 	.word	0x00001ab5
     d14:	00000609 	.word	0x00000609
     d18:	00003b5a 	.word	0x00003b5a
     d1c:	00001c05 	.word	0x00001c05
     d20:	0000047d 	.word	0x0000047d
     d24:	000004a9 	.word	0x000004a9
     d28:	00000965 	.word	0x00000965
     d2c:	2b00      	cmp	r3, #0
     d2e:	d002      	beq.n	d36 <usart_init+0x302>
     d30:	2380      	movs	r3, #128	; 0x80
     d32:	04db      	lsls	r3, r3, #19
     d34:	431d      	orrs	r5, r3
     d36:	1c23      	adds	r3, r4, #0
     d38:	332c      	adds	r3, #44	; 0x2c
     d3a:	781b      	ldrb	r3, [r3, #0]
     d3c:	2b00      	cmp	r3, #0
     d3e:	d103      	bne.n	d48 <usart_init+0x314>
     d40:	4b29      	ldr	r3, [pc, #164]	; (de8 <usart_init+0x3b4>)
     d42:	789b      	ldrb	r3, [r3, #2]
     d44:	079a      	lsls	r2, r3, #30
     d46:	d501      	bpl.n	d4c <usart_init+0x318>
     d48:	2380      	movs	r3, #128	; 0x80
     d4a:	431d      	orrs	r5, r3
     d4c:	4b27      	ldr	r3, [pc, #156]	; (dec <usart_init+0x3b8>)
     d4e:	1c38      	adds	r0, r7, #0
     d50:	4798      	blx	r3
     d52:	9904      	ldr	r1, [sp, #16]
     d54:	4a25      	ldr	r2, [pc, #148]	; (dec <usart_init+0x3b8>)
     d56:	604e      	str	r6, [r1, #4]
     d58:	1c38      	adds	r0, r7, #0
     d5a:	4790      	blx	r2
     d5c:	9b04      	ldr	r3, [sp, #16]
     d5e:	2100      	movs	r1, #0
     d60:	601d      	str	r5, [r3, #0]
     d62:	ad0d      	add	r5, sp, #52	; 0x34
     d64:	2380      	movs	r3, #128	; 0x80
     d66:	6b22      	ldr	r2, [r4, #48]	; 0x30
     d68:	9103      	str	r1, [sp, #12]
     d6a:	702b      	strb	r3, [r5, #0]
     d6c:	7069      	strb	r1, [r5, #1]
     d6e:	6b63      	ldr	r3, [r4, #52]	; 0x34
     d70:	70e9      	strb	r1, [r5, #3]
     d72:	70a9      	strb	r1, [r5, #2]
     d74:	6ba1      	ldr	r1, [r4, #56]	; 0x38
     d76:	6be4      	ldr	r4, [r4, #60]	; 0x3c
     d78:	ae0e      	add	r6, sp, #56	; 0x38
     d7a:	60f4      	str	r4, [r6, #12]
     d7c:	920e      	str	r2, [sp, #56]	; 0x38
     d7e:	6073      	str	r3, [r6, #4]
     d80:	60b1      	str	r1, [r6, #8]
     d82:	2400      	movs	r4, #0
     d84:	00a3      	lsls	r3, r4, #2
     d86:	58f0      	ldr	r0, [r6, r3]
     d88:	b2e1      	uxtb	r1, r4
     d8a:	2800      	cmp	r0, #0
     d8c:	d102      	bne.n	d94 <usart_init+0x360>
     d8e:	9805      	ldr	r0, [sp, #20]
     d90:	4b17      	ldr	r3, [pc, #92]	; (df0 <usart_init+0x3bc>)
     d92:	4798      	blx	r3
     d94:	1c42      	adds	r2, r0, #1
     d96:	d005      	beq.n	da4 <usart_init+0x370>
     d98:	7028      	strb	r0, [r5, #0]
     d9a:	0c00      	lsrs	r0, r0, #16
     d9c:	b2c0      	uxtb	r0, r0
     d9e:	1c29      	adds	r1, r5, #0
     da0:	4b14      	ldr	r3, [pc, #80]	; (df4 <usart_init+0x3c0>)
     da2:	4798      	blx	r3
     da4:	3401      	adds	r4, #1
     da6:	2c04      	cmp	r4, #4
     da8:	d1ec      	bne.n	d84 <usart_init+0x350>
     daa:	1c3a      	adds	r2, r7, #0
     dac:	2300      	movs	r3, #0
     dae:	3230      	adds	r2, #48	; 0x30
     db0:	85fb      	strh	r3, [r7, #46]	; 0x2e
     db2:	60fb      	str	r3, [r7, #12]
     db4:	613b      	str	r3, [r7, #16]
     db6:	617b      	str	r3, [r7, #20]
     db8:	61bb      	str	r3, [r7, #24]
     dba:	61fb      	str	r3, [r7, #28]
     dbc:	623b      	str	r3, [r7, #32]
     dbe:	62bb      	str	r3, [r7, #40]	; 0x28
     dc0:	627b      	str	r3, [r7, #36]	; 0x24
     dc2:	85bb      	strh	r3, [r7, #44]	; 0x2c
     dc4:	7093      	strb	r3, [r2, #2]
     dc6:	7013      	strb	r3, [r2, #0]
     dc8:	7053      	strb	r3, [r2, #1]
     dca:	70d3      	strb	r3, [r2, #3]
     dcc:	6838      	ldr	r0, [r7, #0]
     dce:	4b0a      	ldr	r3, [pc, #40]	; (df8 <usart_init+0x3c4>)
     dd0:	4798      	blx	r3
     dd2:	4b0a      	ldr	r3, [pc, #40]	; (dfc <usart_init+0x3c8>)
     dd4:	490a      	ldr	r1, [pc, #40]	; (e00 <usart_init+0x3cc>)
     dd6:	1c04      	adds	r4, r0, #0
     dd8:	4798      	blx	r3
     dda:	4b0a      	ldr	r3, [pc, #40]	; (e04 <usart_init+0x3d0>)
     ddc:	00a4      	lsls	r4, r4, #2
     dde:	50e7      	str	r7, [r4, r3]
     de0:	9803      	ldr	r0, [sp, #12]
     de2:	b013      	add	sp, #76	; 0x4c
     de4:	bdf0      	pop	{r4, r5, r6, r7, pc}
     de6:	46c0      	nop			; (mov r8, r8)
     de8:	41002000 	.word	0x41002000
     dec:	00000965 	.word	0x00000965
     df0:	00000651 	.word	0x00000651
     df4:	00001d45 	.word	0x00001d45
     df8:	000007e5 	.word	0x000007e5
     dfc:	000008a1 	.word	0x000008a1
     e00:	000014d9 	.word	0x000014d9
     e04:	2000012c 	.word	0x2000012c

00000e08 <usart_write_wait>:
     e08:	b5f7      	push	{r0, r1, r2, r4, r5, r6, r7, lr}
     e0a:	4b25      	ldr	r3, [pc, #148]	; (ea0 <usart_write_wait+0x98>)
     e0c:	1c04      	adds	r4, r0, #0
     e0e:	6818      	ldr	r0, [r3, #0]
     e10:	1c0e      	adds	r6, r1, #0
     e12:	1c1d      	adds	r5, r3, #0
     e14:	2800      	cmp	r0, #0
     e16:	d00c      	beq.n	e32 <usart_write_wait+0x2a>
     e18:	2c00      	cmp	r4, #0
     e1a:	d114      	bne.n	e46 <usart_write_wait+0x3e>
     e1c:	4b21      	ldr	r3, [pc, #132]	; (ea4 <usart_write_wait+0x9c>)
     e1e:	2101      	movs	r1, #1
     e20:	9300      	str	r3, [sp, #0]
     e22:	4b21      	ldr	r3, [pc, #132]	; (ea8 <usart_write_wait+0xa0>)
     e24:	4a21      	ldr	r2, [pc, #132]	; (eac <usart_write_wait+0xa4>)
     e26:	9301      	str	r3, [sp, #4]
     e28:	2388      	movs	r3, #136	; 0x88
     e2a:	33ff      	adds	r3, #255	; 0xff
     e2c:	4f20      	ldr	r7, [pc, #128]	; (eb0 <usart_write_wait+0xa8>)
     e2e:	47b8      	blx	r7
     e30:	e009      	b.n	e46 <usart_write_wait+0x3e>
     e32:	2c00      	cmp	r4, #0
     e34:	d107      	bne.n	e46 <usart_write_wait+0x3e>
     e36:	2388      	movs	r3, #136	; 0x88
     e38:	481e      	ldr	r0, [pc, #120]	; (eb4 <usart_write_wait+0xac>)
     e3a:	491b      	ldr	r1, [pc, #108]	; (ea8 <usart_write_wait+0xa0>)
     e3c:	4a1b      	ldr	r2, [pc, #108]	; (eac <usart_write_wait+0xa4>)
     e3e:	33ff      	adds	r3, #255	; 0xff
     e40:	4c1d      	ldr	r4, [pc, #116]	; (eb8 <usart_write_wait+0xb0>)
     e42:	47a0      	blx	r4
     e44:	e7fe      	b.n	e44 <usart_write_wait+0x3c>
     e46:	6828      	ldr	r0, [r5, #0]
     e48:	6823      	ldr	r3, [r4, #0]
     e4a:	2800      	cmp	r0, #0
     e4c:	d00c      	beq.n	e68 <usart_write_wait+0x60>
     e4e:	2b00      	cmp	r3, #0
     e50:	d114      	bne.n	e7c <usart_write_wait+0x74>
     e52:	4b14      	ldr	r3, [pc, #80]	; (ea4 <usart_write_wait+0x9c>)
     e54:	2101      	movs	r1, #1
     e56:	9300      	str	r3, [sp, #0]
     e58:	4b18      	ldr	r3, [pc, #96]	; (ebc <usart_write_wait+0xb4>)
     e5a:	4a14      	ldr	r2, [pc, #80]	; (eac <usart_write_wait+0xa4>)
     e5c:	9301      	str	r3, [sp, #4]
     e5e:	23c4      	movs	r3, #196	; 0xc4
     e60:	408b      	lsls	r3, r1
     e62:	4d13      	ldr	r5, [pc, #76]	; (eb0 <usart_write_wait+0xa8>)
     e64:	47a8      	blx	r5
     e66:	e009      	b.n	e7c <usart_write_wait+0x74>
     e68:	2b00      	cmp	r3, #0
     e6a:	d107      	bne.n	e7c <usart_write_wait+0x74>
     e6c:	23c4      	movs	r3, #196	; 0xc4
     e6e:	4811      	ldr	r0, [pc, #68]	; (eb4 <usart_write_wait+0xac>)
     e70:	4912      	ldr	r1, [pc, #72]	; (ebc <usart_write_wait+0xb4>)
     e72:	4a0e      	ldr	r2, [pc, #56]	; (eac <usart_write_wait+0xa4>)
     e74:	005b      	lsls	r3, r3, #1
     e76:	4c10      	ldr	r4, [pc, #64]	; (eb8 <usart_write_wait+0xb0>)
     e78:	47a0      	blx	r4
     e7a:	e7fe      	b.n	e7a <usart_write_wait+0x72>
     e7c:	79e3      	ldrb	r3, [r4, #7]
     e7e:	6825      	ldr	r5, [r4, #0]
     e80:	201c      	movs	r0, #28
     e82:	2b00      	cmp	r3, #0
     e84:	d00b      	beq.n	e9e <usart_write_wait+0x96>
     e86:	8de3      	ldrh	r3, [r4, #46]	; 0x2e
     e88:	2005      	movs	r0, #5
     e8a:	2b00      	cmp	r3, #0
     e8c:	d107      	bne.n	e9e <usart_write_wait+0x96>
     e8e:	1c20      	adds	r0, r4, #0
     e90:	4b0b      	ldr	r3, [pc, #44]	; (ec0 <usart_write_wait+0xb8>)
     e92:	4798      	blx	r3
     e94:	852e      	strh	r6, [r5, #40]	; 0x28
     e96:	7e2b      	ldrb	r3, [r5, #24]
     e98:	079a      	lsls	r2, r3, #30
     e9a:	d5fc      	bpl.n	e96 <usart_write_wait+0x8e>
     e9c:	2000      	movs	r0, #0
     e9e:	bdfe      	pop	{r1, r2, r3, r4, r5, r6, r7, pc}
     ea0:	2000008c 	.word	0x2000008c
     ea4:	000038ff 	.word	0x000038ff
     ea8:	00003b53 	.word	0x00003b53
     eac:	00003b65 	.word	0x00003b65
     eb0:	000001f5 	.word	0x000001f5
     eb4:	00003939 	.word	0x00003939
     eb8:	00002889 	.word	0x00002889
     ebc:	00003b5a 	.word	0x00003b5a
     ec0:	00000965 	.word	0x00000965

00000ec4 <usart_read_wait>:
     ec4:	b5f7      	push	{r0, r1, r2, r4, r5, r6, r7, lr}
     ec6:	4b39      	ldr	r3, [pc, #228]	; (fac <usart_read_wait+0xe8>)
     ec8:	1c05      	adds	r5, r0, #0
     eca:	6818      	ldr	r0, [r3, #0]
     ecc:	1c0f      	adds	r7, r1, #0
     ece:	1c1c      	adds	r4, r3, #0
     ed0:	2800      	cmp	r0, #0
     ed2:	d00c      	beq.n	eee <usart_read_wait+0x2a>
     ed4:	2d00      	cmp	r5, #0
     ed6:	d114      	bne.n	f02 <usart_read_wait+0x3e>
     ed8:	4b35      	ldr	r3, [pc, #212]	; (fb0 <usart_read_wait+0xec>)
     eda:	2101      	movs	r1, #1
     edc:	9300      	str	r3, [sp, #0]
     ede:	4b35      	ldr	r3, [pc, #212]	; (fb4 <usart_read_wait+0xf0>)
     ee0:	4a35      	ldr	r2, [pc, #212]	; (fb8 <usart_read_wait+0xf4>)
     ee2:	9301      	str	r3, [sp, #4]
     ee4:	23e4      	movs	r3, #228	; 0xe4
     ee6:	408b      	lsls	r3, r1
     ee8:	4e34      	ldr	r6, [pc, #208]	; (fbc <usart_read_wait+0xf8>)
     eea:	47b0      	blx	r6
     eec:	e009      	b.n	f02 <usart_read_wait+0x3e>
     eee:	2d00      	cmp	r5, #0
     ef0:	d107      	bne.n	f02 <usart_read_wait+0x3e>
     ef2:	23e4      	movs	r3, #228	; 0xe4
     ef4:	4832      	ldr	r0, [pc, #200]	; (fc0 <usart_read_wait+0xfc>)
     ef6:	492f      	ldr	r1, [pc, #188]	; (fb4 <usart_read_wait+0xf0>)
     ef8:	4a2f      	ldr	r2, [pc, #188]	; (fb8 <usart_read_wait+0xf4>)
     efa:	005b      	lsls	r3, r3, #1
     efc:	4c31      	ldr	r4, [pc, #196]	; (fc4 <usart_read_wait+0x100>)
     efe:	47a0      	blx	r4
     f00:	e7fe      	b.n	f00 <usart_read_wait+0x3c>
     f02:	6820      	ldr	r0, [r4, #0]
     f04:	682b      	ldr	r3, [r5, #0]
     f06:	2800      	cmp	r0, #0
     f08:	d00c      	beq.n	f24 <usart_read_wait+0x60>
     f0a:	2b00      	cmp	r3, #0
     f0c:	d114      	bne.n	f38 <usart_read_wait+0x74>
     f0e:	4b28      	ldr	r3, [pc, #160]	; (fb0 <usart_read_wait+0xec>)
     f10:	2101      	movs	r1, #1
     f12:	9300      	str	r3, [sp, #0]
     f14:	4b2c      	ldr	r3, [pc, #176]	; (fc8 <usart_read_wait+0x104>)
     f16:	4a28      	ldr	r2, [pc, #160]	; (fb8 <usart_read_wait+0xf4>)
     f18:	9301      	str	r3, [sp, #4]
     f1a:	23ca      	movs	r3, #202	; 0xca
     f1c:	33ff      	adds	r3, #255	; 0xff
     f1e:	4c27      	ldr	r4, [pc, #156]	; (fbc <usart_read_wait+0xf8>)
     f20:	47a0      	blx	r4
     f22:	e009      	b.n	f38 <usart_read_wait+0x74>
     f24:	2b00      	cmp	r3, #0
     f26:	d107      	bne.n	f38 <usart_read_wait+0x74>
     f28:	23ca      	movs	r3, #202	; 0xca
     f2a:	4825      	ldr	r0, [pc, #148]	; (fc0 <usart_read_wait+0xfc>)
     f2c:	4926      	ldr	r1, [pc, #152]	; (fc8 <usart_read_wait+0x104>)
     f2e:	4a22      	ldr	r2, [pc, #136]	; (fb8 <usart_read_wait+0xf4>)
     f30:	33ff      	adds	r3, #255	; 0xff
     f32:	4c24      	ldr	r4, [pc, #144]	; (fc4 <usart_read_wait+0x100>)
     f34:	47a0      	blx	r4
     f36:	e7fe      	b.n	f36 <usart_read_wait+0x72>
     f38:	79ab      	ldrb	r3, [r5, #6]
     f3a:	682c      	ldr	r4, [r5, #0]
     f3c:	201c      	movs	r0, #28
     f3e:	2b00      	cmp	r3, #0
     f40:	d032      	beq.n	fa8 <usart_read_wait+0xe4>
     f42:	8dab      	ldrh	r3, [r5, #44]	; 0x2c
     f44:	2005      	movs	r0, #5
     f46:	2b00      	cmp	r3, #0
     f48:	d12e      	bne.n	fa8 <usart_read_wait+0xe4>
     f4a:	7e23      	ldrb	r3, [r4, #24]
     f4c:	2604      	movs	r6, #4
     f4e:	4233      	tst	r3, r6
     f50:	d02a      	beq.n	fa8 <usart_read_wait+0xe4>
     f52:	4b1e      	ldr	r3, [pc, #120]	; (fcc <usart_read_wait+0x108>)
     f54:	1c28      	adds	r0, r5, #0
     f56:	4798      	blx	r3
     f58:	8b63      	ldrh	r3, [r4, #26]
     f5a:	b2db      	uxtb	r3, r3
     f5c:	069a      	lsls	r2, r3, #26
     f5e:	d020      	beq.n	fa2 <usart_read_wait+0xde>
     f60:	2202      	movs	r2, #2
     f62:	4213      	tst	r3, r2
     f64:	d002      	beq.n	f6c <usart_read_wait+0xa8>
     f66:	8362      	strh	r2, [r4, #26]
     f68:	201a      	movs	r0, #26
     f6a:	e01d      	b.n	fa8 <usart_read_wait+0xe4>
     f6c:	4233      	tst	r3, r6
     f6e:	d002      	beq.n	f76 <usart_read_wait+0xb2>
     f70:	8366      	strh	r6, [r4, #26]
     f72:	201e      	movs	r0, #30
     f74:	e018      	b.n	fa8 <usart_read_wait+0xe4>
     f76:	2201      	movs	r2, #1
     f78:	4213      	tst	r3, r2
     f7a:	d002      	beq.n	f82 <usart_read_wait+0xbe>
     f7c:	8362      	strh	r2, [r4, #26]
     f7e:	2013      	movs	r0, #19
     f80:	e012      	b.n	fa8 <usart_read_wait+0xe4>
     f82:	2210      	movs	r2, #16
     f84:	4213      	tst	r3, r2
     f86:	d004      	beq.n	f92 <usart_read_wait+0xce>
     f88:	8b63      	ldrh	r3, [r4, #26]
     f8a:	2042      	movs	r0, #66	; 0x42
     f8c:	431a      	orrs	r2, r3
     f8e:	8362      	strh	r2, [r4, #26]
     f90:	e00a      	b.n	fa8 <usart_read_wait+0xe4>
     f92:	2220      	movs	r2, #32
     f94:	4213      	tst	r3, r2
     f96:	d004      	beq.n	fa2 <usart_read_wait+0xde>
     f98:	8b63      	ldrh	r3, [r4, #26]
     f9a:	2041      	movs	r0, #65	; 0x41
     f9c:	431a      	orrs	r2, r3
     f9e:	8362      	strh	r2, [r4, #26]
     fa0:	e002      	b.n	fa8 <usart_read_wait+0xe4>
     fa2:	8d23      	ldrh	r3, [r4, #40]	; 0x28
     fa4:	2000      	movs	r0, #0
     fa6:	803b      	strh	r3, [r7, #0]
     fa8:	bdfe      	pop	{r1, r2, r3, r4, r5, r6, r7, pc}
     faa:	46c0      	nop			; (mov r8, r8)
     fac:	2000008c 	.word	0x2000008c
     fb0:	000038ff 	.word	0x000038ff
     fb4:	00003b53 	.word	0x00003b53
     fb8:	00003b65 	.word	0x00003b65
     fbc:	000001f5 	.word	0x000001f5
     fc0:	00003939 	.word	0x00003939
     fc4:	00002889 	.word	0x00002889
     fc8:	00003b5a 	.word	0x00003b5a
     fcc:	00000965 	.word	0x00000965

00000fd0 <usart_write_buffer_wait>:
     fd0:	b5f0      	push	{r4, r5, r6, r7, lr}
     fd2:	4e38      	ldr	r6, [pc, #224]	; (10b4 <usart_write_buffer_wait+0xe4>)
     fd4:	1c04      	adds	r4, r0, #0
     fd6:	6830      	ldr	r0, [r6, #0]
     fd8:	b085      	sub	sp, #20
     fda:	1c0f      	adds	r7, r1, #0
     fdc:	1c15      	adds	r5, r2, #0
     fde:	2800      	cmp	r0, #0
     fe0:	d00b      	beq.n	ffa <usart_write_buffer_wait+0x2a>
     fe2:	2c00      	cmp	r4, #0
     fe4:	d112      	bne.n	100c <usart_write_buffer_wait+0x3c>
     fe6:	4b34      	ldr	r3, [pc, #208]	; (10b8 <usart_write_buffer_wait+0xe8>)
     fe8:	2101      	movs	r1, #1
     fea:	9300      	str	r3, [sp, #0]
     fec:	4b33      	ldr	r3, [pc, #204]	; (10bc <usart_write_buffer_wait+0xec>)
     fee:	4a34      	ldr	r2, [pc, #208]	; (10c0 <usart_write_buffer_wait+0xf0>)
     ff0:	9301      	str	r3, [sp, #4]
     ff2:	4e34      	ldr	r6, [pc, #208]	; (10c4 <usart_write_buffer_wait+0xf4>)
     ff4:	4b34      	ldr	r3, [pc, #208]	; (10c8 <usart_write_buffer_wait+0xf8>)
     ff6:	47b0      	blx	r6
     ff8:	e008      	b.n	100c <usart_write_buffer_wait+0x3c>
     ffa:	2c00      	cmp	r4, #0
     ffc:	d106      	bne.n	100c <usart_write_buffer_wait+0x3c>
     ffe:	4833      	ldr	r0, [pc, #204]	; (10cc <usart_write_buffer_wait+0xfc>)
    1000:	492e      	ldr	r1, [pc, #184]	; (10bc <usart_write_buffer_wait+0xec>)
    1002:	4a2f      	ldr	r2, [pc, #188]	; (10c0 <usart_write_buffer_wait+0xf0>)
    1004:	4b30      	ldr	r3, [pc, #192]	; (10c8 <usart_write_buffer_wait+0xf8>)
    1006:	4c32      	ldr	r4, [pc, #200]	; (10d0 <usart_write_buffer_wait+0x100>)
    1008:	47a0      	blx	r4
    100a:	e7fe      	b.n	100a <usart_write_buffer_wait+0x3a>
    100c:	4e29      	ldr	r6, [pc, #164]	; (10b4 <usart_write_buffer_wait+0xe4>)
    100e:	6823      	ldr	r3, [r4, #0]
    1010:	6830      	ldr	r0, [r6, #0]
    1012:	2800      	cmp	r0, #0
    1014:	d00b      	beq.n	102e <usart_write_buffer_wait+0x5e>
    1016:	2b00      	cmp	r3, #0
    1018:	d112      	bne.n	1040 <usart_write_buffer_wait+0x70>
    101a:	4b27      	ldr	r3, [pc, #156]	; (10b8 <usart_write_buffer_wait+0xe8>)
    101c:	2101      	movs	r1, #1
    101e:	9300      	str	r3, [sp, #0]
    1020:	4b2c      	ldr	r3, [pc, #176]	; (10d4 <usart_write_buffer_wait+0x104>)
    1022:	4a27      	ldr	r2, [pc, #156]	; (10c0 <usart_write_buffer_wait+0xf0>)
    1024:	9301      	str	r3, [sp, #4]
    1026:	4e27      	ldr	r6, [pc, #156]	; (10c4 <usart_write_buffer_wait+0xf4>)
    1028:	4b2b      	ldr	r3, [pc, #172]	; (10d8 <usart_write_buffer_wait+0x108>)
    102a:	47b0      	blx	r6
    102c:	e008      	b.n	1040 <usart_write_buffer_wait+0x70>
    102e:	2b00      	cmp	r3, #0
    1030:	d106      	bne.n	1040 <usart_write_buffer_wait+0x70>
    1032:	4826      	ldr	r0, [pc, #152]	; (10cc <usart_write_buffer_wait+0xfc>)
    1034:	4927      	ldr	r1, [pc, #156]	; (10d4 <usart_write_buffer_wait+0x104>)
    1036:	4a22      	ldr	r2, [pc, #136]	; (10c0 <usart_write_buffer_wait+0xf0>)
    1038:	4b27      	ldr	r3, [pc, #156]	; (10d8 <usart_write_buffer_wait+0x108>)
    103a:	4c25      	ldr	r4, [pc, #148]	; (10d0 <usart_write_buffer_wait+0x100>)
    103c:	47a0      	blx	r4
    103e:	e7fe      	b.n	103e <usart_write_buffer_wait+0x6e>
    1040:	2017      	movs	r0, #23
    1042:	2d00      	cmp	r5, #0
    1044:	d034      	beq.n	10b0 <usart_write_buffer_wait+0xe0>
    1046:	79e3      	ldrb	r3, [r4, #7]
    1048:	201c      	movs	r0, #28
    104a:	2b00      	cmp	r3, #0
    104c:	d030      	beq.n	10b0 <usart_write_buffer_wait+0xe0>
    104e:	6826      	ldr	r6, [r4, #0]
    1050:	4b22      	ldr	r3, [pc, #136]	; (10dc <usart_write_buffer_wait+0x10c>)
    1052:	1c20      	adds	r0, r4, #0
    1054:	9603      	str	r6, [sp, #12]
    1056:	4798      	blx	r3
    1058:	2300      	movs	r3, #0
    105a:	2280      	movs	r2, #128	; 0x80
    105c:	0252      	lsls	r2, r2, #9
    105e:	9e03      	ldr	r6, [sp, #12]
    1060:	7e31      	ldrb	r1, [r6, #24]
    1062:	07c8      	lsls	r0, r1, #31
    1064:	d403      	bmi.n	106e <usart_write_buffer_wait+0x9e>
    1066:	3a01      	subs	r2, #1
    1068:	2a00      	cmp	r2, #0
    106a:	d1f8      	bne.n	105e <usart_write_buffer_wait+0x8e>
    106c:	e01f      	b.n	10ae <usart_write_buffer_wait+0xde>
    106e:	7962      	ldrb	r2, [r4, #5]
    1070:	1c5e      	adds	r6, r3, #1
    1072:	b2b6      	uxth	r6, r6
    1074:	5cf9      	ldrb	r1, [r7, r3]
    1076:	2a01      	cmp	r2, #1
    1078:	d104      	bne.n	1084 <usart_write_buffer_wait+0xb4>
    107a:	5dba      	ldrb	r2, [r7, r6]
    107c:	3302      	adds	r3, #2
    107e:	0212      	lsls	r2, r2, #8
    1080:	4311      	orrs	r1, r2
    1082:	b29e      	uxth	r6, r3
    1084:	3d01      	subs	r5, #1
    1086:	1c20      	adds	r0, r4, #0
    1088:	4b15      	ldr	r3, [pc, #84]	; (10e0 <usart_write_buffer_wait+0x110>)
    108a:	b2ad      	uxth	r5, r5
    108c:	4798      	blx	r3
    108e:	2d00      	cmp	r5, #0
    1090:	d102      	bne.n	1098 <usart_write_buffer_wait+0xc8>
    1092:	2380      	movs	r3, #128	; 0x80
    1094:	025b      	lsls	r3, r3, #9
    1096:	e004      	b.n	10a2 <usart_write_buffer_wait+0xd2>
    1098:	1c33      	adds	r3, r6, #0
    109a:	e7de      	b.n	105a <usart_write_buffer_wait+0x8a>
    109c:	3b01      	subs	r3, #1
    109e:	2b00      	cmp	r3, #0
    10a0:	d005      	beq.n	10ae <usart_write_buffer_wait+0xde>
    10a2:	9e03      	ldr	r6, [sp, #12]
    10a4:	7e32      	ldrb	r2, [r6, #24]
    10a6:	0790      	lsls	r0, r2, #30
    10a8:	d5f8      	bpl.n	109c <usart_write_buffer_wait+0xcc>
    10aa:	2000      	movs	r0, #0
    10ac:	e000      	b.n	10b0 <usart_write_buffer_wait+0xe0>
    10ae:	2012      	movs	r0, #18
    10b0:	b005      	add	sp, #20
    10b2:	bdf0      	pop	{r4, r5, r6, r7, pc}
    10b4:	2000008c 	.word	0x2000008c
    10b8:	000038ff 	.word	0x000038ff
    10bc:	00003b53 	.word	0x00003b53
    10c0:	00003b65 	.word	0x00003b65
    10c4:	000001f5 	.word	0x000001f5
    10c8:	0000023e 	.word	0x0000023e
    10cc:	00003939 	.word	0x00003939
    10d0:	00002889 	.word	0x00002889
    10d4:	00003b5a 	.word	0x00003b5a
    10d8:	0000023f 	.word	0x0000023f
    10dc:	00000965 	.word	0x00000965
    10e0:	00000e09 	.word	0x00000e09

000010e4 <_usart_write_buffer>:
    10e4:	b5f0      	push	{r4, r5, r6, r7, lr}
    10e6:	4f20      	ldr	r7, [pc, #128]	; (1168 <_usart_write_buffer+0x84>)
    10e8:	1c04      	adds	r4, r0, #0
    10ea:	6838      	ldr	r0, [r7, #0]
    10ec:	b085      	sub	sp, #20
    10ee:	9103      	str	r1, [sp, #12]
    10f0:	1c16      	adds	r6, r2, #0
    10f2:	2800      	cmp	r0, #0
    10f4:	d00b      	beq.n	110e <_usart_write_buffer+0x2a>
    10f6:	2c00      	cmp	r4, #0
    10f8:	d112      	bne.n	1120 <_usart_write_buffer+0x3c>
    10fa:	4b1c      	ldr	r3, [pc, #112]	; (116c <_usart_write_buffer+0x88>)
    10fc:	2101      	movs	r1, #1
    10fe:	9300      	str	r3, [sp, #0]
    1100:	4b1b      	ldr	r3, [pc, #108]	; (1170 <_usart_write_buffer+0x8c>)
    1102:	4a1c      	ldr	r2, [pc, #112]	; (1174 <_usart_write_buffer+0x90>)
    1104:	9301      	str	r3, [sp, #4]
    1106:	4d1c      	ldr	r5, [pc, #112]	; (1178 <_usart_write_buffer+0x94>)
    1108:	2340      	movs	r3, #64	; 0x40
    110a:	47a8      	blx	r5
    110c:	e008      	b.n	1120 <_usart_write_buffer+0x3c>
    110e:	2c00      	cmp	r4, #0
    1110:	d106      	bne.n	1120 <_usart_write_buffer+0x3c>
    1112:	481a      	ldr	r0, [pc, #104]	; (117c <_usart_write_buffer+0x98>)
    1114:	4916      	ldr	r1, [pc, #88]	; (1170 <_usart_write_buffer+0x8c>)
    1116:	4a17      	ldr	r2, [pc, #92]	; (1174 <_usart_write_buffer+0x90>)
    1118:	2340      	movs	r3, #64	; 0x40
    111a:	4c19      	ldr	r4, [pc, #100]	; (1180 <_usart_write_buffer+0x9c>)
    111c:	47a0      	blx	r4
    111e:	e7fe      	b.n	111e <_usart_write_buffer+0x3a>
    1120:	6838      	ldr	r0, [r7, #0]
    1122:	6823      	ldr	r3, [r4, #0]
    1124:	2800      	cmp	r0, #0
    1126:	d00b      	beq.n	1140 <_usart_write_buffer+0x5c>
    1128:	2b00      	cmp	r3, #0
    112a:	d112      	bne.n	1152 <_usart_write_buffer+0x6e>
    112c:	4b0f      	ldr	r3, [pc, #60]	; (116c <_usart_write_buffer+0x88>)
    112e:	2101      	movs	r1, #1
    1130:	9300      	str	r3, [sp, #0]
    1132:	4b14      	ldr	r3, [pc, #80]	; (1184 <_usart_write_buffer+0xa0>)
    1134:	4a0f      	ldr	r2, [pc, #60]	; (1174 <_usart_write_buffer+0x90>)
    1136:	9301      	str	r3, [sp, #4]
    1138:	4f0f      	ldr	r7, [pc, #60]	; (1178 <_usart_write_buffer+0x94>)
    113a:	2341      	movs	r3, #65	; 0x41
    113c:	47b8      	blx	r7
    113e:	e008      	b.n	1152 <_usart_write_buffer+0x6e>
    1140:	2b00      	cmp	r3, #0
    1142:	d106      	bne.n	1152 <_usart_write_buffer+0x6e>
    1144:	480d      	ldr	r0, [pc, #52]	; (117c <_usart_write_buffer+0x98>)
    1146:	490f      	ldr	r1, [pc, #60]	; (1184 <_usart_write_buffer+0xa0>)
    1148:	4a0a      	ldr	r2, [pc, #40]	; (1174 <_usart_write_buffer+0x90>)
    114a:	2341      	movs	r3, #65	; 0x41
    114c:	4c0c      	ldr	r4, [pc, #48]	; (1180 <_usart_write_buffer+0x9c>)
    114e:	47a0      	blx	r4
    1150:	e7fe      	b.n	1150 <_usart_write_buffer+0x6c>
    1152:	9d03      	ldr	r5, [sp, #12]
    1154:	6823      	ldr	r3, [r4, #0]
    1156:	85e6      	strh	r6, [r4, #46]	; 0x2e
    1158:	62a5      	str	r5, [r4, #40]	; 0x28
    115a:	2205      	movs	r2, #5
    115c:	3433      	adds	r4, #51	; 0x33
    115e:	7022      	strb	r2, [r4, #0]
    1160:	2201      	movs	r2, #1
    1162:	759a      	strb	r2, [r3, #22]
    1164:	b005      	add	sp, #20
    1166:	bdf0      	pop	{r4, r5, r6, r7, pc}
    1168:	2000008c 	.word	0x2000008c
    116c:	000038ff 	.word	0x000038ff
    1170:	00003b53 	.word	0x00003b53
    1174:	00003b92 	.word	0x00003b92
    1178:	000001f5 	.word	0x000001f5
    117c:	00003939 	.word	0x00003939
    1180:	00002889 	.word	0x00002889
    1184:	00003b5a 	.word	0x00003b5a

00001188 <_usart_read_buffer>:
    1188:	b5f0      	push	{r4, r5, r6, r7, lr}
    118a:	4f26      	ldr	r7, [pc, #152]	; (1224 <_usart_read_buffer+0x9c>)
    118c:	1c04      	adds	r4, r0, #0
    118e:	6838      	ldr	r0, [r7, #0]
    1190:	b085      	sub	sp, #20
    1192:	9103      	str	r1, [sp, #12]
    1194:	1c16      	adds	r6, r2, #0
    1196:	2800      	cmp	r0, #0
    1198:	d00b      	beq.n	11b2 <_usart_read_buffer+0x2a>
    119a:	2c00      	cmp	r4, #0
    119c:	d112      	bne.n	11c4 <_usart_read_buffer+0x3c>
    119e:	4b22      	ldr	r3, [pc, #136]	; (1228 <_usart_read_buffer+0xa0>)
    11a0:	2101      	movs	r1, #1
    11a2:	9300      	str	r3, [sp, #0]
    11a4:	4b21      	ldr	r3, [pc, #132]	; (122c <_usart_read_buffer+0xa4>)
    11a6:	4a22      	ldr	r2, [pc, #136]	; (1230 <_usart_read_buffer+0xa8>)
    11a8:	9301      	str	r3, [sp, #4]
    11aa:	4d22      	ldr	r5, [pc, #136]	; (1234 <_usart_read_buffer+0xac>)
    11ac:	235e      	movs	r3, #94	; 0x5e
    11ae:	47a8      	blx	r5
    11b0:	e008      	b.n	11c4 <_usart_read_buffer+0x3c>
    11b2:	2c00      	cmp	r4, #0
    11b4:	d106      	bne.n	11c4 <_usart_read_buffer+0x3c>
    11b6:	4820      	ldr	r0, [pc, #128]	; (1238 <_usart_read_buffer+0xb0>)
    11b8:	491c      	ldr	r1, [pc, #112]	; (122c <_usart_read_buffer+0xa4>)
    11ba:	4a1d      	ldr	r2, [pc, #116]	; (1230 <_usart_read_buffer+0xa8>)
    11bc:	235e      	movs	r3, #94	; 0x5e
    11be:	4c1f      	ldr	r4, [pc, #124]	; (123c <_usart_read_buffer+0xb4>)
    11c0:	47a0      	blx	r4
    11c2:	e7fe      	b.n	11c2 <_usart_read_buffer+0x3a>
    11c4:	6838      	ldr	r0, [r7, #0]
    11c6:	6823      	ldr	r3, [r4, #0]
    11c8:	2800      	cmp	r0, #0
    11ca:	d00b      	beq.n	11e4 <_usart_read_buffer+0x5c>
    11cc:	2b00      	cmp	r3, #0
    11ce:	d112      	bne.n	11f6 <_usart_read_buffer+0x6e>
    11d0:	4b15      	ldr	r3, [pc, #84]	; (1228 <_usart_read_buffer+0xa0>)
    11d2:	2101      	movs	r1, #1
    11d4:	9300      	str	r3, [sp, #0]
    11d6:	4b1a      	ldr	r3, [pc, #104]	; (1240 <_usart_read_buffer+0xb8>)
    11d8:	4a15      	ldr	r2, [pc, #84]	; (1230 <_usart_read_buffer+0xa8>)
    11da:	9301      	str	r3, [sp, #4]
    11dc:	4f15      	ldr	r7, [pc, #84]	; (1234 <_usart_read_buffer+0xac>)
    11de:	235f      	movs	r3, #95	; 0x5f
    11e0:	47b8      	blx	r7
    11e2:	e008      	b.n	11f6 <_usart_read_buffer+0x6e>
    11e4:	2b00      	cmp	r3, #0
    11e6:	d106      	bne.n	11f6 <_usart_read_buffer+0x6e>
    11e8:	4813      	ldr	r0, [pc, #76]	; (1238 <_usart_read_buffer+0xb0>)
    11ea:	4915      	ldr	r1, [pc, #84]	; (1240 <_usart_read_buffer+0xb8>)
    11ec:	4a10      	ldr	r2, [pc, #64]	; (1230 <_usart_read_buffer+0xa8>)
    11ee:	235f      	movs	r3, #95	; 0x5f
    11f0:	4c12      	ldr	r4, [pc, #72]	; (123c <_usart_read_buffer+0xb4>)
    11f2:	47a0      	blx	r4
    11f4:	e7fe      	b.n	11f4 <_usart_read_buffer+0x6c>
    11f6:	9d03      	ldr	r5, [sp, #12]
    11f8:	1c22      	adds	r2, r4, #0
    11fa:	6823      	ldr	r3, [r4, #0]
    11fc:	3232      	adds	r2, #50	; 0x32
    11fe:	2105      	movs	r1, #5
    1200:	85a6      	strh	r6, [r4, #44]	; 0x2c
    1202:	6265      	str	r5, [r4, #36]	; 0x24
    1204:	7011      	strb	r1, [r2, #0]
    1206:	2204      	movs	r2, #4
    1208:	759a      	strb	r2, [r3, #22]
    120a:	7a22      	ldrb	r2, [r4, #8]
    120c:	2a00      	cmp	r2, #0
    120e:	d001      	beq.n	1214 <_usart_read_buffer+0x8c>
    1210:	2220      	movs	r2, #32
    1212:	759a      	strb	r2, [r3, #22]
    1214:	7a62      	ldrb	r2, [r4, #9]
    1216:	2a00      	cmp	r2, #0
    1218:	d001      	beq.n	121e <_usart_read_buffer+0x96>
    121a:	2208      	movs	r2, #8
    121c:	759a      	strb	r2, [r3, #22]
    121e:	b005      	add	sp, #20
    1220:	bdf0      	pop	{r4, r5, r6, r7, pc}
    1222:	46c0      	nop			; (mov r8, r8)
    1224:	2000008c 	.word	0x2000008c
    1228:	000038ff 	.word	0x000038ff
    122c:	00003b53 	.word	0x00003b53
    1230:	00003b92 	.word	0x00003b92
    1234:	000001f5 	.word	0x000001f5
    1238:	00003939 	.word	0x00003939
    123c:	00002889 	.word	0x00002889
    1240:	00003b5a 	.word	0x00003b5a

00001244 <usart_register_callback>:
    1244:	b5f7      	push	{r0, r1, r2, r4, r5, r6, r7, lr}
    1246:	4f20      	ldr	r7, [pc, #128]	; (12c8 <usart_register_callback+0x84>)
    1248:	1c04      	adds	r4, r0, #0
    124a:	6838      	ldr	r0, [r7, #0]
    124c:	1c0d      	adds	r5, r1, #0
    124e:	1c16      	adds	r6, r2, #0
    1250:	2800      	cmp	r0, #0
    1252:	d00b      	beq.n	126c <usart_register_callback+0x28>
    1254:	2c00      	cmp	r4, #0
    1256:	d112      	bne.n	127e <usart_register_callback+0x3a>
    1258:	4b1c      	ldr	r3, [pc, #112]	; (12cc <usart_register_callback+0x88>)
    125a:	2101      	movs	r1, #1
    125c:	9300      	str	r3, [sp, #0]
    125e:	4b1c      	ldr	r3, [pc, #112]	; (12d0 <usart_register_callback+0x8c>)
    1260:	4a1c      	ldr	r2, [pc, #112]	; (12d4 <usart_register_callback+0x90>)
    1262:	9301      	str	r3, [sp, #4]
    1264:	4f1c      	ldr	r7, [pc, #112]	; (12d8 <usart_register_callback+0x94>)
    1266:	2390      	movs	r3, #144	; 0x90
    1268:	47b8      	blx	r7
    126a:	e008      	b.n	127e <usart_register_callback+0x3a>
    126c:	2c00      	cmp	r4, #0
    126e:	d106      	bne.n	127e <usart_register_callback+0x3a>
    1270:	481a      	ldr	r0, [pc, #104]	; (12dc <usart_register_callback+0x98>)
    1272:	4917      	ldr	r1, [pc, #92]	; (12d0 <usart_register_callback+0x8c>)
    1274:	4a17      	ldr	r2, [pc, #92]	; (12d4 <usart_register_callback+0x90>)
    1276:	2390      	movs	r3, #144	; 0x90
    1278:	4c19      	ldr	r4, [pc, #100]	; (12e0 <usart_register_callback+0x9c>)
    127a:	47a0      	blx	r4
    127c:	e7fe      	b.n	127c <usart_register_callback+0x38>
    127e:	4f12      	ldr	r7, [pc, #72]	; (12c8 <usart_register_callback+0x84>)
    1280:	6838      	ldr	r0, [r7, #0]
    1282:	2800      	cmp	r0, #0
    1284:	d00b      	beq.n	129e <usart_register_callback+0x5a>
    1286:	2d00      	cmp	r5, #0
    1288:	d112      	bne.n	12b0 <usart_register_callback+0x6c>
    128a:	4b10      	ldr	r3, [pc, #64]	; (12cc <usart_register_callback+0x88>)
    128c:	2101      	movs	r1, #1
    128e:	9300      	str	r3, [sp, #0]
    1290:	4b14      	ldr	r3, [pc, #80]	; (12e4 <usart_register_callback+0xa0>)
    1292:	4a10      	ldr	r2, [pc, #64]	; (12d4 <usart_register_callback+0x90>)
    1294:	9301      	str	r3, [sp, #4]
    1296:	4f10      	ldr	r7, [pc, #64]	; (12d8 <usart_register_callback+0x94>)
    1298:	2391      	movs	r3, #145	; 0x91
    129a:	47b8      	blx	r7
    129c:	e008      	b.n	12b0 <usart_register_callback+0x6c>
    129e:	2d00      	cmp	r5, #0
    12a0:	d106      	bne.n	12b0 <usart_register_callback+0x6c>
    12a2:	480e      	ldr	r0, [pc, #56]	; (12dc <usart_register_callback+0x98>)
    12a4:	490f      	ldr	r1, [pc, #60]	; (12e4 <usart_register_callback+0xa0>)
    12a6:	4a0b      	ldr	r2, [pc, #44]	; (12d4 <usart_register_callback+0x90>)
    12a8:	2391      	movs	r3, #145	; 0x91
    12aa:	4c0d      	ldr	r4, [pc, #52]	; (12e0 <usart_register_callback+0x9c>)
    12ac:	47a0      	blx	r4
    12ae:	e7fe      	b.n	12ae <usart_register_callback+0x6a>
    12b0:	1cb3      	adds	r3, r6, #2
    12b2:	009b      	lsls	r3, r3, #2
    12b4:	18e3      	adds	r3, r4, r3
    12b6:	605d      	str	r5, [r3, #4]
    12b8:	2301      	movs	r3, #1
    12ba:	3430      	adds	r4, #48	; 0x30
    12bc:	40b3      	lsls	r3, r6
    12be:	1c1e      	adds	r6, r3, #0
    12c0:	7823      	ldrb	r3, [r4, #0]
    12c2:	431e      	orrs	r6, r3
    12c4:	7026      	strb	r6, [r4, #0]
    12c6:	bdf7      	pop	{r0, r1, r2, r4, r5, r6, r7, pc}
    12c8:	2000008c 	.word	0x2000008c
    12cc:	000038ff 	.word	0x000038ff
    12d0:	00003b53 	.word	0x00003b53
    12d4:	00003b92 	.word	0x00003b92
    12d8:	000001f5 	.word	0x000001f5
    12dc:	00003939 	.word	0x00003939
    12e0:	00002889 	.word	0x00002889
    12e4:	00003bc9 	.word	0x00003bc9

000012e8 <usart_unregister_callback>:
    12e8:	b573      	push	{r0, r1, r4, r5, r6, lr}
    12ea:	4b14      	ldr	r3, [pc, #80]	; (133c <usart_unregister_callback+0x54>)
    12ec:	1c04      	adds	r4, r0, #0
    12ee:	6818      	ldr	r0, [r3, #0]
    12f0:	1c0d      	adds	r5, r1, #0
    12f2:	2800      	cmp	r0, #0
    12f4:	d00b      	beq.n	130e <usart_unregister_callback+0x26>
    12f6:	2c00      	cmp	r4, #0
    12f8:	d112      	bne.n	1320 <usart_unregister_callback+0x38>
    12fa:	4b11      	ldr	r3, [pc, #68]	; (1340 <usart_unregister_callback+0x58>)
    12fc:	2101      	movs	r1, #1
    12fe:	9300      	str	r3, [sp, #0]
    1300:	4b10      	ldr	r3, [pc, #64]	; (1344 <usart_unregister_callback+0x5c>)
    1302:	4a11      	ldr	r2, [pc, #68]	; (1348 <usart_unregister_callback+0x60>)
    1304:	9301      	str	r3, [sp, #4]
    1306:	4e11      	ldr	r6, [pc, #68]	; (134c <usart_unregister_callback+0x64>)
    1308:	23a8      	movs	r3, #168	; 0xa8
    130a:	47b0      	blx	r6
    130c:	e008      	b.n	1320 <usart_unregister_callback+0x38>
    130e:	2c00      	cmp	r4, #0
    1310:	d106      	bne.n	1320 <usart_unregister_callback+0x38>
    1312:	480f      	ldr	r0, [pc, #60]	; (1350 <usart_unregister_callback+0x68>)
    1314:	490b      	ldr	r1, [pc, #44]	; (1344 <usart_unregister_callback+0x5c>)
    1316:	4a0c      	ldr	r2, [pc, #48]	; (1348 <usart_unregister_callback+0x60>)
    1318:	23a8      	movs	r3, #168	; 0xa8
    131a:	4c0e      	ldr	r4, [pc, #56]	; (1354 <usart_unregister_callback+0x6c>)
    131c:	47a0      	blx	r4
    131e:	e7fe      	b.n	131e <usart_unregister_callback+0x36>
    1320:	1cab      	adds	r3, r5, #2
    1322:	009b      	lsls	r3, r3, #2
    1324:	18e3      	adds	r3, r4, r3
    1326:	2200      	movs	r2, #0
    1328:	605a      	str	r2, [r3, #4]
    132a:	2301      	movs	r3, #1
    132c:	3430      	adds	r4, #48	; 0x30
    132e:	40ab      	lsls	r3, r5
    1330:	1c1d      	adds	r5, r3, #0
    1332:	7823      	ldrb	r3, [r4, #0]
    1334:	43ab      	bics	r3, r5
    1336:	7023      	strb	r3, [r4, #0]
    1338:	bd73      	pop	{r0, r1, r4, r5, r6, pc}
    133a:	46c0      	nop			; (mov r8, r8)
    133c:	2000008c 	.word	0x2000008c
    1340:	000038ff 	.word	0x000038ff
    1344:	00003b53 	.word	0x00003b53
    1348:	00003b92 	.word	0x00003b92
    134c:	000001f5 	.word	0x000001f5
    1350:	00003939 	.word	0x00003939
    1354:	00002889 	.word	0x00002889

00001358 <usart_write_buffer_job>:
    1358:	b5f7      	push	{r0, r1, r2, r4, r5, r6, r7, lr}
    135a:	4e26      	ldr	r6, [pc, #152]	; (13f4 <usart_write_buffer_job+0x9c>)
    135c:	1c04      	adds	r4, r0, #0
    135e:	6830      	ldr	r0, [r6, #0]
    1360:	1c0d      	adds	r5, r1, #0
    1362:	1c17      	adds	r7, r2, #0
    1364:	2800      	cmp	r0, #0
    1366:	d00c      	beq.n	1382 <usart_write_buffer_job+0x2a>
    1368:	2c00      	cmp	r4, #0
    136a:	d114      	bne.n	1396 <usart_write_buffer_job+0x3e>
    136c:	4b22      	ldr	r3, [pc, #136]	; (13f8 <usart_write_buffer_job+0xa0>)
    136e:	2101      	movs	r1, #1
    1370:	9300      	str	r3, [sp, #0]
    1372:	4b22      	ldr	r3, [pc, #136]	; (13fc <usart_write_buffer_job+0xa4>)
    1374:	4a22      	ldr	r2, [pc, #136]	; (1400 <usart_write_buffer_job+0xa8>)
    1376:	9301      	str	r3, [sp, #4]
    1378:	238d      	movs	r3, #141	; 0x8d
    137a:	408b      	lsls	r3, r1
    137c:	4e21      	ldr	r6, [pc, #132]	; (1404 <usart_write_buffer_job+0xac>)
    137e:	47b0      	blx	r6
    1380:	e009      	b.n	1396 <usart_write_buffer_job+0x3e>
    1382:	2c00      	cmp	r4, #0
    1384:	d107      	bne.n	1396 <usart_write_buffer_job+0x3e>
    1386:	238d      	movs	r3, #141	; 0x8d
    1388:	481f      	ldr	r0, [pc, #124]	; (1408 <usart_write_buffer_job+0xb0>)
    138a:	491c      	ldr	r1, [pc, #112]	; (13fc <usart_write_buffer_job+0xa4>)
    138c:	4a1c      	ldr	r2, [pc, #112]	; (1400 <usart_write_buffer_job+0xa8>)
    138e:	005b      	lsls	r3, r3, #1
    1390:	4c1e      	ldr	r4, [pc, #120]	; (140c <usart_write_buffer_job+0xb4>)
    1392:	47a0      	blx	r4
    1394:	e7fe      	b.n	1394 <usart_write_buffer_job+0x3c>
    1396:	4e17      	ldr	r6, [pc, #92]	; (13f4 <usart_write_buffer_job+0x9c>)
    1398:	6830      	ldr	r0, [r6, #0]
    139a:	2800      	cmp	r0, #0
    139c:	d00c      	beq.n	13b8 <usart_write_buffer_job+0x60>
    139e:	2d00      	cmp	r5, #0
    13a0:	d114      	bne.n	13cc <usart_write_buffer_job+0x74>
    13a2:	4b15      	ldr	r3, [pc, #84]	; (13f8 <usart_write_buffer_job+0xa0>)
    13a4:	2101      	movs	r1, #1
    13a6:	9300      	str	r3, [sp, #0]
    13a8:	4b19      	ldr	r3, [pc, #100]	; (1410 <usart_write_buffer_job+0xb8>)
    13aa:	4a15      	ldr	r2, [pc, #84]	; (1400 <usart_write_buffer_job+0xa8>)
    13ac:	9301      	str	r3, [sp, #4]
    13ae:	231c      	movs	r3, #28
    13b0:	33ff      	adds	r3, #255	; 0xff
    13b2:	4e14      	ldr	r6, [pc, #80]	; (1404 <usart_write_buffer_job+0xac>)
    13b4:	47b0      	blx	r6
    13b6:	e009      	b.n	13cc <usart_write_buffer_job+0x74>
    13b8:	2d00      	cmp	r5, #0
    13ba:	d107      	bne.n	13cc <usart_write_buffer_job+0x74>
    13bc:	231c      	movs	r3, #28
    13be:	4812      	ldr	r0, [pc, #72]	; (1408 <usart_write_buffer_job+0xb0>)
    13c0:	4913      	ldr	r1, [pc, #76]	; (1410 <usart_write_buffer_job+0xb8>)
    13c2:	4a0f      	ldr	r2, [pc, #60]	; (1400 <usart_write_buffer_job+0xa8>)
    13c4:	33ff      	adds	r3, #255	; 0xff
    13c6:	4c11      	ldr	r4, [pc, #68]	; (140c <usart_write_buffer_job+0xb4>)
    13c8:	47a0      	blx	r4
    13ca:	e7fe      	b.n	13ca <usart_write_buffer_job+0x72>
    13cc:	2017      	movs	r0, #23
    13ce:	2f00      	cmp	r7, #0
    13d0:	d00e      	beq.n	13f0 <usart_write_buffer_job+0x98>
    13d2:	8de6      	ldrh	r6, [r4, #46]	; 0x2e
    13d4:	2005      	movs	r0, #5
    13d6:	b2b6      	uxth	r6, r6
    13d8:	2e00      	cmp	r6, #0
    13da:	d109      	bne.n	13f0 <usart_write_buffer_job+0x98>
    13dc:	79e3      	ldrb	r3, [r4, #7]
    13de:	201c      	movs	r0, #28
    13e0:	2b00      	cmp	r3, #0
    13e2:	d005      	beq.n	13f0 <usart_write_buffer_job+0x98>
    13e4:	1c20      	adds	r0, r4, #0
    13e6:	1c29      	adds	r1, r5, #0
    13e8:	1c3a      	adds	r2, r7, #0
    13ea:	4b0a      	ldr	r3, [pc, #40]	; (1414 <usart_write_buffer_job+0xbc>)
    13ec:	4798      	blx	r3
    13ee:	1c30      	adds	r0, r6, #0
    13f0:	bdfe      	pop	{r1, r2, r3, r4, r5, r6, r7, pc}
    13f2:	46c0      	nop			; (mov r8, r8)
    13f4:	2000008c 	.word	0x2000008c
    13f8:	000038ff 	.word	0x000038ff
    13fc:	00003b53 	.word	0x00003b53
    1400:	00003b92 	.word	0x00003b92
    1404:	000001f5 	.word	0x000001f5
    1408:	00003939 	.word	0x00003939
    140c:	00002889 	.word	0x00002889
    1410:	00003bd7 	.word	0x00003bd7
    1414:	000010e5 	.word	0x000010e5

00001418 <usart_read_buffer_job>:
    1418:	b5f7      	push	{r0, r1, r2, r4, r5, r6, r7, lr}
    141a:	4e26      	ldr	r6, [pc, #152]	; (14b4 <usart_read_buffer_job+0x9c>)
    141c:	1c04      	adds	r4, r0, #0
    141e:	6830      	ldr	r0, [r6, #0]
    1420:	1c0d      	adds	r5, r1, #0
    1422:	1c17      	adds	r7, r2, #0
    1424:	2800      	cmp	r0, #0
    1426:	d00c      	beq.n	1442 <usart_read_buffer_job+0x2a>
    1428:	2c00      	cmp	r4, #0
    142a:	d114      	bne.n	1456 <usart_read_buffer_job+0x3e>
    142c:	4b22      	ldr	r3, [pc, #136]	; (14b8 <usart_read_buffer_job+0xa0>)
    142e:	2101      	movs	r1, #1
    1430:	9300      	str	r3, [sp, #0]
    1432:	4b22      	ldr	r3, [pc, #136]	; (14bc <usart_read_buffer_job+0xa4>)
    1434:	4a22      	ldr	r2, [pc, #136]	; (14c0 <usart_read_buffer_job+0xa8>)
    1436:	9301      	str	r3, [sp, #4]
    1438:	23a9      	movs	r3, #169	; 0xa9
    143a:	408b      	lsls	r3, r1
    143c:	4e21      	ldr	r6, [pc, #132]	; (14c4 <usart_read_buffer_job+0xac>)
    143e:	47b0      	blx	r6
    1440:	e009      	b.n	1456 <usart_read_buffer_job+0x3e>
    1442:	2c00      	cmp	r4, #0
    1444:	d107      	bne.n	1456 <usart_read_buffer_job+0x3e>
    1446:	23a9      	movs	r3, #169	; 0xa9
    1448:	481f      	ldr	r0, [pc, #124]	; (14c8 <usart_read_buffer_job+0xb0>)
    144a:	491c      	ldr	r1, [pc, #112]	; (14bc <usart_read_buffer_job+0xa4>)
    144c:	4a1c      	ldr	r2, [pc, #112]	; (14c0 <usart_read_buffer_job+0xa8>)
    144e:	005b      	lsls	r3, r3, #1
    1450:	4c1e      	ldr	r4, [pc, #120]	; (14cc <usart_read_buffer_job+0xb4>)
    1452:	47a0      	blx	r4
    1454:	e7fe      	b.n	1454 <usart_read_buffer_job+0x3c>
    1456:	4e17      	ldr	r6, [pc, #92]	; (14b4 <usart_read_buffer_job+0x9c>)
    1458:	6830      	ldr	r0, [r6, #0]
    145a:	2800      	cmp	r0, #0
    145c:	d00c      	beq.n	1478 <usart_read_buffer_job+0x60>
    145e:	2d00      	cmp	r5, #0
    1460:	d114      	bne.n	148c <usart_read_buffer_job+0x74>
    1462:	4b15      	ldr	r3, [pc, #84]	; (14b8 <usart_read_buffer_job+0xa0>)
    1464:	2101      	movs	r1, #1
    1466:	9300      	str	r3, [sp, #0]
    1468:	4b19      	ldr	r3, [pc, #100]	; (14d0 <usart_read_buffer_job+0xb8>)
    146a:	4a15      	ldr	r2, [pc, #84]	; (14c0 <usart_read_buffer_job+0xa8>)
    146c:	9301      	str	r3, [sp, #4]
    146e:	2354      	movs	r3, #84	; 0x54
    1470:	33ff      	adds	r3, #255	; 0xff
    1472:	4e14      	ldr	r6, [pc, #80]	; (14c4 <usart_read_buffer_job+0xac>)
    1474:	47b0      	blx	r6
    1476:	e009      	b.n	148c <usart_read_buffer_job+0x74>
    1478:	2d00      	cmp	r5, #0
    147a:	d107      	bne.n	148c <usart_read_buffer_job+0x74>
    147c:	2354      	movs	r3, #84	; 0x54
    147e:	4812      	ldr	r0, [pc, #72]	; (14c8 <usart_read_buffer_job+0xb0>)
    1480:	4913      	ldr	r1, [pc, #76]	; (14d0 <usart_read_buffer_job+0xb8>)
    1482:	4a0f      	ldr	r2, [pc, #60]	; (14c0 <usart_read_buffer_job+0xa8>)
    1484:	33ff      	adds	r3, #255	; 0xff
    1486:	4c11      	ldr	r4, [pc, #68]	; (14cc <usart_read_buffer_job+0xb4>)
    1488:	47a0      	blx	r4
    148a:	e7fe      	b.n	148a <usart_read_buffer_job+0x72>
    148c:	2017      	movs	r0, #23
    148e:	2f00      	cmp	r7, #0
    1490:	d00e      	beq.n	14b0 <usart_read_buffer_job+0x98>
    1492:	79a3      	ldrb	r3, [r4, #6]
    1494:	201c      	movs	r0, #28
    1496:	2b00      	cmp	r3, #0
    1498:	d00a      	beq.n	14b0 <usart_read_buffer_job+0x98>
    149a:	8da6      	ldrh	r6, [r4, #44]	; 0x2c
    149c:	2005      	movs	r0, #5
    149e:	b2b6      	uxth	r6, r6
    14a0:	2e00      	cmp	r6, #0
    14a2:	d105      	bne.n	14b0 <usart_read_buffer_job+0x98>
    14a4:	1c20      	adds	r0, r4, #0
    14a6:	1c29      	adds	r1, r5, #0
    14a8:	1c3a      	adds	r2, r7, #0
    14aa:	4b0a      	ldr	r3, [pc, #40]	; (14d4 <usart_read_buffer_job+0xbc>)
    14ac:	4798      	blx	r3
    14ae:	1c30      	adds	r0, r6, #0
    14b0:	bdfe      	pop	{r1, r2, r3, r4, r5, r6, r7, pc}
    14b2:	46c0      	nop			; (mov r8, r8)
    14b4:	2000008c 	.word	0x2000008c
    14b8:	000038ff 	.word	0x000038ff
    14bc:	00003b53 	.word	0x00003b53
    14c0:	00003b92 	.word	0x00003b92
    14c4:	000001f5 	.word	0x000001f5
    14c8:	00003939 	.word	0x00003939
    14cc:	00002889 	.word	0x00002889
    14d0:	00003bdf 	.word	0x00003bdf
    14d4:	00001189 	.word	0x00001189

000014d8 <_usart_interrupt_handler>:
    14d8:	b5f7      	push	{r0, r1, r2, r4, r5, r6, r7, lr}
    14da:	4b66      	ldr	r3, [pc, #408]	; (1674 <_usart_interrupt_handler+0x19c>)
    14dc:	0080      	lsls	r0, r0, #2
    14de:	58c4      	ldr	r4, [r0, r3]
    14e0:	6825      	ldr	r5, [r4, #0]
    14e2:	4b65      	ldr	r3, [pc, #404]	; (1678 <_usart_interrupt_handler+0x1a0>)
    14e4:	6818      	ldr	r0, [r3, #0]
    14e6:	6823      	ldr	r3, [r4, #0]
    14e8:	2800      	cmp	r0, #0
    14ea:	d00b      	beq.n	1504 <_usart_interrupt_handler+0x2c>
    14ec:	2b00      	cmp	r3, #0
    14ee:	d112      	bne.n	1516 <_usart_interrupt_handler+0x3e>
    14f0:	4b62      	ldr	r3, [pc, #392]	; (167c <_usart_interrupt_handler+0x1a4>)
    14f2:	2101      	movs	r1, #1
    14f4:	9300      	str	r3, [sp, #0]
    14f6:	4b62      	ldr	r3, [pc, #392]	; (1680 <_usart_interrupt_handler+0x1a8>)
    14f8:	4a62      	ldr	r2, [pc, #392]	; (1684 <_usart_interrupt_handler+0x1ac>)
    14fa:	9301      	str	r3, [sp, #4]
    14fc:	4e62      	ldr	r6, [pc, #392]	; (1688 <_usart_interrupt_handler+0x1b0>)
    14fe:	4b63      	ldr	r3, [pc, #396]	; (168c <_usart_interrupt_handler+0x1b4>)
    1500:	47b0      	blx	r6
    1502:	e008      	b.n	1516 <_usart_interrupt_handler+0x3e>
    1504:	2b00      	cmp	r3, #0
    1506:	d106      	bne.n	1516 <_usart_interrupt_handler+0x3e>
    1508:	4861      	ldr	r0, [pc, #388]	; (1690 <_usart_interrupt_handler+0x1b8>)
    150a:	495d      	ldr	r1, [pc, #372]	; (1680 <_usart_interrupt_handler+0x1a8>)
    150c:	4a5d      	ldr	r2, [pc, #372]	; (1684 <_usart_interrupt_handler+0x1ac>)
    150e:	4b5f      	ldr	r3, [pc, #380]	; (168c <_usart_interrupt_handler+0x1b4>)
    1510:	4c60      	ldr	r4, [pc, #384]	; (1694 <_usart_interrupt_handler+0x1bc>)
    1512:	47a0      	blx	r4
    1514:	e7fe      	b.n	1514 <_usart_interrupt_handler+0x3c>
    1516:	6823      	ldr	r3, [r4, #0]
    1518:	69db      	ldr	r3, [r3, #28]
    151a:	2b00      	cmp	r3, #0
    151c:	d1e1      	bne.n	14e2 <_usart_interrupt_handler+0xa>
    151e:	7e2f      	ldrb	r7, [r5, #24]
    1520:	7dab      	ldrb	r3, [r5, #22]
    1522:	1c22      	adds	r2, r4, #0
    1524:	401f      	ands	r7, r3
    1526:	1c23      	adds	r3, r4, #0
    1528:	3331      	adds	r3, #49	; 0x31
    152a:	3230      	adds	r2, #48	; 0x30
    152c:	781b      	ldrb	r3, [r3, #0]
    152e:	7816      	ldrb	r6, [r2, #0]
    1530:	401e      	ands	r6, r3
    1532:	2301      	movs	r3, #1
    1534:	421f      	tst	r7, r3
    1536:	d01e      	beq.n	1576 <_usart_interrupt_handler+0x9e>
    1538:	8de2      	ldrh	r2, [r4, #46]	; 0x2e
    153a:	2a00      	cmp	r2, #0
    153c:	d01a      	beq.n	1574 <_usart_interrupt_handler+0x9c>
    153e:	6aa3      	ldr	r3, [r4, #40]	; 0x28
    1540:	1c59      	adds	r1, r3, #1
    1542:	781a      	ldrb	r2, [r3, #0]
    1544:	62a1      	str	r1, [r4, #40]	; 0x28
    1546:	7961      	ldrb	r1, [r4, #5]
    1548:	b2d2      	uxtb	r2, r2
    154a:	2901      	cmp	r1, #1
    154c:	d104      	bne.n	1558 <_usart_interrupt_handler+0x80>
    154e:	7859      	ldrb	r1, [r3, #1]
    1550:	3302      	adds	r3, #2
    1552:	0209      	lsls	r1, r1, #8
    1554:	430a      	orrs	r2, r1
    1556:	62a3      	str	r3, [r4, #40]	; 0x28
    1558:	05d2      	lsls	r2, r2, #23
    155a:	0dd2      	lsrs	r2, r2, #23
    155c:	852a      	strh	r2, [r5, #40]	; 0x28
    155e:	8de3      	ldrh	r3, [r4, #46]	; 0x2e
    1560:	3b01      	subs	r3, #1
    1562:	b29b      	uxth	r3, r3
    1564:	85e3      	strh	r3, [r4, #46]	; 0x2e
    1566:	2b00      	cmp	r3, #0
    1568:	d105      	bne.n	1576 <_usart_interrupt_handler+0x9e>
    156a:	2301      	movs	r3, #1
    156c:	752b      	strb	r3, [r5, #20]
    156e:	2302      	movs	r3, #2
    1570:	75ab      	strb	r3, [r5, #22]
    1572:	e000      	b.n	1576 <_usart_interrupt_handler+0x9e>
    1574:	752b      	strb	r3, [r5, #20]
    1576:	2302      	movs	r3, #2
    1578:	421f      	tst	r7, r3
    157a:	d009      	beq.n	1590 <_usart_interrupt_handler+0xb8>
    157c:	752b      	strb	r3, [r5, #20]
    157e:	1c23      	adds	r3, r4, #0
    1580:	2200      	movs	r2, #0
    1582:	3333      	adds	r3, #51	; 0x33
    1584:	701a      	strb	r2, [r3, #0]
    1586:	07f1      	lsls	r1, r6, #31
    1588:	d502      	bpl.n	1590 <_usart_interrupt_handler+0xb8>
    158a:	1c20      	adds	r0, r4, #0
    158c:	68e3      	ldr	r3, [r4, #12]
    158e:	4798      	blx	r3
    1590:	2304      	movs	r3, #4
    1592:	421f      	tst	r7, r3
    1594:	d04e      	beq.n	1634 <_usart_interrupt_handler+0x15c>
    1596:	8da2      	ldrh	r2, [r4, #44]	; 0x2c
    1598:	2a00      	cmp	r2, #0
    159a:	d04a      	beq.n	1632 <_usart_interrupt_handler+0x15a>
    159c:	8b6a      	ldrh	r2, [r5, #26]
    159e:	233f      	movs	r3, #63	; 0x3f
    15a0:	b2d2      	uxtb	r2, r2
    15a2:	4013      	ands	r3, r2
    15a4:	0711      	lsls	r1, r2, #28
    15a6:	d501      	bpl.n	15ac <_usart_interrupt_handler+0xd4>
    15a8:	2337      	movs	r3, #55	; 0x37
    15aa:	4013      	ands	r3, r2
    15ac:	2b00      	cmp	r3, #0
    15ae:	d01e      	beq.n	15ee <_usart_interrupt_handler+0x116>
    15b0:	2202      	movs	r2, #2
    15b2:	211a      	movs	r1, #26
    15b4:	4213      	tst	r3, r2
    15b6:	d10f      	bne.n	15d8 <_usart_interrupt_handler+0x100>
    15b8:	2204      	movs	r2, #4
    15ba:	211e      	movs	r1, #30
    15bc:	4213      	tst	r3, r2
    15be:	d10b      	bne.n	15d8 <_usart_interrupt_handler+0x100>
    15c0:	2201      	movs	r2, #1
    15c2:	2113      	movs	r1, #19
    15c4:	4213      	tst	r3, r2
    15c6:	d107      	bne.n	15d8 <_usart_interrupt_handler+0x100>
    15c8:	2210      	movs	r2, #16
    15ca:	2142      	movs	r1, #66	; 0x42
    15cc:	4213      	tst	r3, r2
    15ce:	d103      	bne.n	15d8 <_usart_interrupt_handler+0x100>
    15d0:	2220      	movs	r2, #32
    15d2:	4213      	tst	r3, r2
    15d4:	d006      	beq.n	15e4 <_usart_interrupt_handler+0x10c>
    15d6:	2141      	movs	r1, #65	; 0x41
    15d8:	1c23      	adds	r3, r4, #0
    15da:	3332      	adds	r3, #50	; 0x32
    15dc:	7019      	strb	r1, [r3, #0]
    15de:	8b6b      	ldrh	r3, [r5, #26]
    15e0:	431a      	orrs	r2, r3
    15e2:	836a      	strh	r2, [r5, #26]
    15e4:	0773      	lsls	r3, r6, #29
    15e6:	d525      	bpl.n	1634 <_usart_interrupt_handler+0x15c>
    15e8:	1c20      	adds	r0, r4, #0
    15ea:	6961      	ldr	r1, [r4, #20]
    15ec:	e01f      	b.n	162e <_usart_interrupt_handler+0x156>
    15ee:	8d2a      	ldrh	r2, [r5, #40]	; 0x28
    15f0:	6a61      	ldr	r1, [r4, #36]	; 0x24
    15f2:	05d2      	lsls	r2, r2, #23
    15f4:	0dd2      	lsrs	r2, r2, #23
    15f6:	b2d3      	uxtb	r3, r2
    15f8:	700b      	strb	r3, [r1, #0]
    15fa:	6a63      	ldr	r3, [r4, #36]	; 0x24
    15fc:	1c59      	adds	r1, r3, #1
    15fe:	6261      	str	r1, [r4, #36]	; 0x24
    1600:	7961      	ldrb	r1, [r4, #5]
    1602:	2901      	cmp	r1, #1
    1604:	d104      	bne.n	1610 <_usart_interrupt_handler+0x138>
    1606:	0a12      	lsrs	r2, r2, #8
    1608:	705a      	strb	r2, [r3, #1]
    160a:	6a63      	ldr	r3, [r4, #36]	; 0x24
    160c:	3301      	adds	r3, #1
    160e:	6263      	str	r3, [r4, #36]	; 0x24
    1610:	8da3      	ldrh	r3, [r4, #44]	; 0x2c
    1612:	3b01      	subs	r3, #1
    1614:	b29b      	uxth	r3, r3
    1616:	85a3      	strh	r3, [r4, #44]	; 0x2c
    1618:	2b00      	cmp	r3, #0
    161a:	d10b      	bne.n	1634 <_usart_interrupt_handler+0x15c>
    161c:	2204      	movs	r2, #4
    161e:	752a      	strb	r2, [r5, #20]
    1620:	1c22      	adds	r2, r4, #0
    1622:	3232      	adds	r2, #50	; 0x32
    1624:	7013      	strb	r3, [r2, #0]
    1626:	07b3      	lsls	r3, r6, #30
    1628:	d504      	bpl.n	1634 <_usart_interrupt_handler+0x15c>
    162a:	6921      	ldr	r1, [r4, #16]
    162c:	1c20      	adds	r0, r4, #0
    162e:	4788      	blx	r1
    1630:	e000      	b.n	1634 <_usart_interrupt_handler+0x15c>
    1632:	752b      	strb	r3, [r5, #20]
    1634:	2310      	movs	r3, #16
    1636:	421f      	tst	r7, r3
    1638:	d006      	beq.n	1648 <_usart_interrupt_handler+0x170>
    163a:	752b      	strb	r3, [r5, #20]
    163c:	762b      	strb	r3, [r5, #24]
    163e:	421e      	tst	r6, r3
    1640:	d002      	beq.n	1648 <_usart_interrupt_handler+0x170>
    1642:	1c20      	adds	r0, r4, #0
    1644:	69e3      	ldr	r3, [r4, #28]
    1646:	4798      	blx	r3
    1648:	2320      	movs	r3, #32
    164a:	421f      	tst	r7, r3
    164c:	d006      	beq.n	165c <_usart_interrupt_handler+0x184>
    164e:	752b      	strb	r3, [r5, #20]
    1650:	762b      	strb	r3, [r5, #24]
    1652:	0731      	lsls	r1, r6, #28
    1654:	d502      	bpl.n	165c <_usart_interrupt_handler+0x184>
    1656:	1c20      	adds	r0, r4, #0
    1658:	69a3      	ldr	r3, [r4, #24]
    165a:	4798      	blx	r3
    165c:	2308      	movs	r3, #8
    165e:	421f      	tst	r7, r3
    1660:	d006      	beq.n	1670 <_usart_interrupt_handler+0x198>
    1662:	752b      	strb	r3, [r5, #20]
    1664:	762b      	strb	r3, [r5, #24]
    1666:	06b1      	lsls	r1, r6, #26
    1668:	d502      	bpl.n	1670 <_usart_interrupt_handler+0x198>
    166a:	6a23      	ldr	r3, [r4, #32]
    166c:	1c20      	adds	r0, r4, #0
    166e:	4798      	blx	r3
    1670:	bdf7      	pop	{r0, r1, r2, r4, r5, r6, r7, pc}
    1672:	46c0      	nop			; (mov r8, r8)
    1674:	2000012c 	.word	0x2000012c
    1678:	2000008c 	.word	0x2000008c
    167c:	000038ff 	.word	0x000038ff
    1680:	00003b5a 	.word	0x00003b5a
    1684:	00003b26 	.word	0x00003b26
    1688:	000001f5 	.word	0x000001f5
    168c:	000002ea 	.word	0x000002ea
    1690:	00003939 	.word	0x00003939
    1694:	00002889 	.word	0x00002889

00001698 <system_clock_source_get_hz>:
    1698:	b510      	push	{r4, lr}
    169a:	2808      	cmp	r0, #8
    169c:	d832      	bhi.n	1704 <system_clock_source_get_hz+0x6c>
    169e:	f001 f833 	bl	2708 <__gnu_thumb1_case_uqi>
    16a2:	3108      	.short	0x3108
    16a4:	13050531 	.word	0x13050531
    16a8:	160b      	.short	0x160b
    16aa:	29          	.byte	0x29
    16ab:	00          	.byte	0x00
    16ac:	2080      	movs	r0, #128	; 0x80
    16ae:	0200      	lsls	r0, r0, #8
    16b0:	e02b      	b.n	170a <system_clock_source_get_hz+0x72>
    16b2:	4b16      	ldr	r3, [pc, #88]	; (170c <system_clock_source_get_hz+0x74>)
    16b4:	6918      	ldr	r0, [r3, #16]
    16b6:	e028      	b.n	170a <system_clock_source_get_hz+0x72>
    16b8:	4b15      	ldr	r3, [pc, #84]	; (1710 <system_clock_source_get_hz+0x78>)
    16ba:	6a18      	ldr	r0, [r3, #32]
    16bc:	4b15      	ldr	r3, [pc, #84]	; (1714 <system_clock_source_get_hz+0x7c>)
    16be:	0580      	lsls	r0, r0, #22
    16c0:	0f80      	lsrs	r0, r0, #30
    16c2:	40c3      	lsrs	r3, r0
    16c4:	1c18      	adds	r0, r3, #0
    16c6:	e020      	b.n	170a <system_clock_source_get_hz+0x72>
    16c8:	4b10      	ldr	r3, [pc, #64]	; (170c <system_clock_source_get_hz+0x74>)
    16ca:	6958      	ldr	r0, [r3, #20]
    16cc:	e01d      	b.n	170a <system_clock_source_get_hz+0x72>
    16ce:	4c0f      	ldr	r4, [pc, #60]	; (170c <system_clock_source_get_hz+0x74>)
    16d0:	2302      	movs	r3, #2
    16d2:	6820      	ldr	r0, [r4, #0]
    16d4:	4018      	ands	r0, r3
    16d6:	d018      	beq.n	170a <system_clock_source_get_hz+0x72>
    16d8:	4b0d      	ldr	r3, [pc, #52]	; (1710 <system_clock_source_get_hz+0x78>)
    16da:	68db      	ldr	r3, [r3, #12]
    16dc:	06da      	lsls	r2, r3, #27
    16de:	d5fb      	bpl.n	16d8 <system_clock_source_get_hz+0x40>
    16e0:	6823      	ldr	r3, [r4, #0]
    16e2:	075a      	lsls	r2, r3, #29
    16e4:	d510      	bpl.n	1708 <system_clock_source_get_hz+0x70>
    16e6:	4b0c      	ldr	r3, [pc, #48]	; (1718 <system_clock_source_get_hz+0x80>)
    16e8:	2000      	movs	r0, #0
    16ea:	4798      	blx	r3
    16ec:	68a3      	ldr	r3, [r4, #8]
    16ee:	b29b      	uxth	r3, r3
    16f0:	4358      	muls	r0, r3
    16f2:	e00a      	b.n	170a <system_clock_source_get_hz+0x72>
    16f4:	4b09      	ldr	r3, [pc, #36]	; (171c <system_clock_source_get_hz+0x84>)
    16f6:	2000      	movs	r0, #0
    16f8:	781b      	ldrb	r3, [r3, #0]
    16fa:	075a      	lsls	r2, r3, #29
    16fc:	d505      	bpl.n	170a <system_clock_source_get_hz+0x72>
    16fe:	4b03      	ldr	r3, [pc, #12]	; (170c <system_clock_source_get_hz+0x74>)
    1700:	68d8      	ldr	r0, [r3, #12]
    1702:	e002      	b.n	170a <system_clock_source_get_hz+0x72>
    1704:	2000      	movs	r0, #0
    1706:	e000      	b.n	170a <system_clock_source_get_hz+0x72>
    1708:	4805      	ldr	r0, [pc, #20]	; (1720 <system_clock_source_get_hz+0x88>)
    170a:	bd10      	pop	{r4, pc}
    170c:	20000108 	.word	0x20000108
    1710:	40000800 	.word	0x40000800
    1714:	007a1200 	.word	0x007a1200
    1718:	00001c05 	.word	0x00001c05
    171c:	40000850 	.word	0x40000850
    1720:	02dc6c00 	.word	0x02dc6c00

00001724 <system_clock_source_osc8m_set_config>:
    1724:	b570      	push	{r4, r5, r6, lr}
    1726:	4b0d      	ldr	r3, [pc, #52]	; (175c <system_clock_source_osc8m_set_config+0x38>)
    1728:	7845      	ldrb	r5, [r0, #1]
    172a:	6a1e      	ldr	r6, [r3, #32]
    172c:	7881      	ldrb	r1, [r0, #2]
    172e:	7804      	ldrb	r4, [r0, #0]
    1730:	2201      	movs	r2, #1
    1732:	2040      	movs	r0, #64	; 0x40
    1734:	4386      	bics	r6, r0
    1736:	4015      	ands	r5, r2
    1738:	01ad      	lsls	r5, r5, #6
    173a:	1c30      	adds	r0, r6, #0
    173c:	400a      	ands	r2, r1
    173e:	4328      	orrs	r0, r5
    1740:	01d1      	lsls	r1, r2, #7
    1742:	2280      	movs	r2, #128	; 0x80
    1744:	4390      	bics	r0, r2
    1746:	1c02      	adds	r2, r0, #0
    1748:	430a      	orrs	r2, r1
    174a:	4805      	ldr	r0, [pc, #20]	; (1760 <system_clock_source_osc8m_set_config+0x3c>)
    174c:	2103      	movs	r1, #3
    174e:	4021      	ands	r1, r4
    1750:	0209      	lsls	r1, r1, #8
    1752:	4002      	ands	r2, r0
    1754:	430a      	orrs	r2, r1
    1756:	621a      	str	r2, [r3, #32]
    1758:	bd70      	pop	{r4, r5, r6, pc}
    175a:	46c0      	nop			; (mov r8, r8)
    175c:	40000800 	.word	0x40000800
    1760:	fffffcff 	.word	0xfffffcff

00001764 <system_clock_source_enable>:
    1764:	b513      	push	{r0, r1, r4, lr}
    1766:	2808      	cmp	r0, #8
    1768:	d83c      	bhi.n	17e4 <system_clock_source_enable+0x80>
    176a:	f000 ffcd 	bl	2708 <__gnu_thumb1_case_uqi>
    176e:	3b11      	.short	0x3b11
    1770:	170b513b 	.word	0x170b513b
    1774:	1d05      	.short	0x1d05
    1776:	35          	.byte	0x35
    1777:	00          	.byte	0x00
    1778:	4b26      	ldr	r3, [pc, #152]	; (1814 <system_clock_source_enable+0xb0>)
    177a:	2102      	movs	r1, #2
    177c:	6a1a      	ldr	r2, [r3, #32]
    177e:	430a      	orrs	r2, r1
    1780:	621a      	str	r2, [r3, #32]
    1782:	e045      	b.n	1810 <system_clock_source_enable+0xac>
    1784:	4b23      	ldr	r3, [pc, #140]	; (1814 <system_clock_source_enable+0xb0>)
    1786:	2102      	movs	r1, #2
    1788:	699a      	ldr	r2, [r3, #24]
    178a:	430a      	orrs	r2, r1
    178c:	619a      	str	r2, [r3, #24]
    178e:	e03f      	b.n	1810 <system_clock_source_enable+0xac>
    1790:	4b20      	ldr	r3, [pc, #128]	; (1814 <system_clock_source_enable+0xb0>)
    1792:	2102      	movs	r1, #2
    1794:	8a1a      	ldrh	r2, [r3, #16]
    1796:	430a      	orrs	r2, r1
    1798:	821a      	strh	r2, [r3, #16]
    179a:	e039      	b.n	1810 <system_clock_source_enable+0xac>
    179c:	4b1d      	ldr	r3, [pc, #116]	; (1814 <system_clock_source_enable+0xb0>)
    179e:	2102      	movs	r1, #2
    17a0:	8a9a      	ldrh	r2, [r3, #20]
    17a2:	430a      	orrs	r2, r1
    17a4:	829a      	strh	r2, [r3, #20]
    17a6:	e033      	b.n	1810 <system_clock_source_enable+0xac>
    17a8:	4b1b      	ldr	r3, [pc, #108]	; (1818 <system_clock_source_enable+0xb4>)
    17aa:	2102      	movs	r1, #2
    17ac:	681a      	ldr	r2, [r3, #0]
    17ae:	430a      	orrs	r2, r1
    17b0:	601a      	str	r2, [r3, #0]
    17b2:	6819      	ldr	r1, [r3, #0]
    17b4:	2280      	movs	r2, #128	; 0x80
    17b6:	4391      	bics	r1, r2
    17b8:	4a16      	ldr	r2, [pc, #88]	; (1814 <system_clock_source_enable+0xb0>)
    17ba:	b289      	uxth	r1, r1
    17bc:	8491      	strh	r1, [r2, #36]	; 0x24
    17be:	1c10      	adds	r0, r2, #0
    17c0:	68c1      	ldr	r1, [r0, #12]
    17c2:	4a14      	ldr	r2, [pc, #80]	; (1814 <system_clock_source_enable+0xb0>)
    17c4:	06cc      	lsls	r4, r1, #27
    17c6:	d5fb      	bpl.n	17c0 <system_clock_source_enable+0x5c>
    17c8:	6899      	ldr	r1, [r3, #8]
    17ca:	62d1      	str	r1, [r2, #44]	; 0x2c
    17cc:	6859      	ldr	r1, [r3, #4]
    17ce:	6291      	str	r1, [r2, #40]	; 0x28
    17d0:	681b      	ldr	r3, [r3, #0]
    17d2:	b29b      	uxth	r3, r3
    17d4:	8493      	strh	r3, [r2, #36]	; 0x24
    17d6:	e01b      	b.n	1810 <system_clock_source_enable+0xac>
    17d8:	4b10      	ldr	r3, [pc, #64]	; (181c <system_clock_source_enable+0xb8>)
    17da:	2102      	movs	r1, #2
    17dc:	781a      	ldrb	r2, [r3, #0]
    17de:	430a      	orrs	r2, r1
    17e0:	701a      	strb	r2, [r3, #0]
    17e2:	e015      	b.n	1810 <system_clock_source_enable+0xac>
    17e4:	4b0e      	ldr	r3, [pc, #56]	; (1820 <system_clock_source_enable+0xbc>)
    17e6:	4a0f      	ldr	r2, [pc, #60]	; (1824 <system_clock_source_enable+0xc0>)
    17e8:	6818      	ldr	r0, [r3, #0]
    17ea:	490f      	ldr	r1, [pc, #60]	; (1828 <system_clock_source_enable+0xc4>)
    17ec:	2800      	cmp	r0, #0
    17ee:	d009      	beq.n	1804 <system_clock_source_enable+0xa0>
    17f0:	4b0e      	ldr	r3, [pc, #56]	; (182c <system_clock_source_enable+0xc8>)
    17f2:	9101      	str	r1, [sp, #4]
    17f4:	9300      	str	r3, [sp, #0]
    17f6:	238e      	movs	r3, #142	; 0x8e
    17f8:	2101      	movs	r1, #1
    17fa:	009b      	lsls	r3, r3, #2
    17fc:	4c0c      	ldr	r4, [pc, #48]	; (1830 <system_clock_source_enable+0xcc>)
    17fe:	47a0      	blx	r4
    1800:	2017      	movs	r0, #23
    1802:	e006      	b.n	1812 <system_clock_source_enable+0xae>
    1804:	238e      	movs	r3, #142	; 0x8e
    1806:	480b      	ldr	r0, [pc, #44]	; (1834 <system_clock_source_enable+0xd0>)
    1808:	009b      	lsls	r3, r3, #2
    180a:	4c0b      	ldr	r4, [pc, #44]	; (1838 <system_clock_source_enable+0xd4>)
    180c:	47a0      	blx	r4
    180e:	e7fe      	b.n	180e <system_clock_source_enable+0xaa>
    1810:	2000      	movs	r0, #0
    1812:	bd16      	pop	{r1, r2, r4, pc}
    1814:	40000800 	.word	0x40000800
    1818:	20000108 	.word	0x20000108
    181c:	40000844 	.word	0x40000844
    1820:	2000008c 	.word	0x2000008c
    1824:	00003c2d 	.word	0x00003c2d
    1828:	00003ae8 	.word	0x00003ae8
    182c:	000038ff 	.word	0x000038ff
    1830:	000001f5 	.word	0x000001f5
    1834:	00003939 	.word	0x00003939
    1838:	00002889 	.word	0x00002889

0000183c <system_clock_init>:
    183c:	b57f      	push	{r0, r1, r2, r3, r4, r5, r6, lr}
    183e:	4b1a      	ldr	r3, [pc, #104]	; (18a8 <system_clock_init+0x6c>)
    1840:	22c2      	movs	r2, #194	; 0xc2
    1842:	00d2      	lsls	r2, r2, #3
    1844:	609a      	str	r2, [r3, #8]
    1846:	4b19      	ldr	r3, [pc, #100]	; (18ac <system_clock_init+0x70>)
    1848:	211e      	movs	r1, #30
    184a:	685a      	ldr	r2, [r3, #4]
    184c:	ad01      	add	r5, sp, #4
    184e:	438a      	bics	r2, r1
    1850:	605a      	str	r2, [r3, #4]
    1852:	2301      	movs	r3, #1
    1854:	702b      	strb	r3, [r5, #0]
    1856:	2400      	movs	r4, #0
    1858:	b2e0      	uxtb	r0, r4
    185a:	1c29      	adds	r1, r5, #0
    185c:	4b14      	ldr	r3, [pc, #80]	; (18b0 <system_clock_init+0x74>)
    185e:	3401      	adds	r4, #1
    1860:	4798      	blx	r3
    1862:	2c25      	cmp	r4, #37	; 0x25
    1864:	d1f8      	bne.n	1858 <system_clock_init+0x1c>
    1866:	2400      	movs	r4, #0
    1868:	466b      	mov	r3, sp
    186a:	2601      	movs	r6, #1
    186c:	709e      	strb	r6, [r3, #2]
    186e:	705c      	strb	r4, [r3, #1]
    1870:	701c      	strb	r4, [r3, #0]
    1872:	4668      	mov	r0, sp
    1874:	4b0f      	ldr	r3, [pc, #60]	; (18b4 <system_clock_init+0x78>)
    1876:	4798      	blx	r3
    1878:	4b0f      	ldr	r3, [pc, #60]	; (18b8 <system_clock_init+0x7c>)
    187a:	2006      	movs	r0, #6
    187c:	4798      	blx	r3
    187e:	4b0f      	ldr	r3, [pc, #60]	; (18bc <system_clock_init+0x80>)
    1880:	4798      	blx	r3
    1882:	4b0f      	ldr	r3, [pc, #60]	; (18c0 <system_clock_init+0x84>)
    1884:	1c29      	adds	r1, r5, #0
    1886:	721c      	strb	r4, [r3, #8]
    1888:	725c      	strb	r4, [r3, #9]
    188a:	729c      	strb	r4, [r3, #10]
    188c:	2306      	movs	r3, #6
    188e:	702b      	strb	r3, [r5, #0]
    1890:	1c20      	adds	r0, r4, #0
    1892:	4b0c      	ldr	r3, [pc, #48]	; (18c4 <system_clock_init+0x88>)
    1894:	606e      	str	r6, [r5, #4]
    1896:	706c      	strb	r4, [r5, #1]
    1898:	722c      	strb	r4, [r5, #8]
    189a:	726c      	strb	r4, [r5, #9]
    189c:	4798      	blx	r3
    189e:	1c20      	adds	r0, r4, #0
    18a0:	4b09      	ldr	r3, [pc, #36]	; (18c8 <system_clock_init+0x8c>)
    18a2:	4798      	blx	r3
    18a4:	bd7f      	pop	{r0, r1, r2, r3, r4, r5, r6, pc}
    18a6:	46c0      	nop			; (mov r8, r8)
    18a8:	40000800 	.word	0x40000800
    18ac:	41004000 	.word	0x41004000
    18b0:	00001b91 	.word	0x00001b91
    18b4:	00001725 	.word	0x00001725
    18b8:	00001765 	.word	0x00001765
    18bc:	000018d9 	.word	0x000018d9
    18c0:	40000400 	.word	0x40000400
    18c4:	000018f9 	.word	0x000018f9
    18c8:	000019ed 	.word	0x000019ed

000018cc <system_gclk_is_syncing>:
    18cc:	4b01      	ldr	r3, [pc, #4]	; (18d4 <system_gclk_is_syncing+0x8>)
    18ce:	7858      	ldrb	r0, [r3, #1]
    18d0:	09c0      	lsrs	r0, r0, #7
    18d2:	4770      	bx	lr
    18d4:	40000c00 	.word	0x40000c00

000018d8 <system_gclk_init>:
    18d8:	4b05      	ldr	r3, [pc, #20]	; (18f0 <system_gclk_init+0x18>)
    18da:	2108      	movs	r1, #8
    18dc:	699a      	ldr	r2, [r3, #24]
    18de:	430a      	orrs	r2, r1
    18e0:	619a      	str	r2, [r3, #24]
    18e2:	4b04      	ldr	r3, [pc, #16]	; (18f4 <system_gclk_init+0x1c>)
    18e4:	2201      	movs	r2, #1
    18e6:	701a      	strb	r2, [r3, #0]
    18e8:	781a      	ldrb	r2, [r3, #0]
    18ea:	07d1      	lsls	r1, r2, #31
    18ec:	d4fc      	bmi.n	18e8 <system_gclk_init+0x10>
    18ee:	4770      	bx	lr
    18f0:	40000400 	.word	0x40000400
    18f4:	40000c00 	.word	0x40000c00

000018f8 <system_gclk_gen_set_config>:
    18f8:	b5f7      	push	{r0, r1, r2, r4, r5, r6, r7, lr}
    18fa:	4b30      	ldr	r3, [pc, #192]	; (19bc <system_gclk_gen_set_config+0xc4>)
    18fc:	1c06      	adds	r6, r0, #0
    18fe:	6818      	ldr	r0, [r3, #0]
    1900:	1c0d      	adds	r5, r1, #0
    1902:	2800      	cmp	r0, #0
    1904:	d00b      	beq.n	191e <system_gclk_gen_set_config+0x26>
    1906:	2900      	cmp	r1, #0
    1908:	d112      	bne.n	1930 <system_gclk_gen_set_config+0x38>
    190a:	4b2d      	ldr	r3, [pc, #180]	; (19c0 <system_gclk_gen_set_config+0xc8>)
    190c:	2101      	movs	r1, #1
    190e:	9300      	str	r3, [sp, #0]
    1910:	4b2c      	ldr	r3, [pc, #176]	; (19c4 <system_gclk_gen_set_config+0xcc>)
    1912:	4a2d      	ldr	r2, [pc, #180]	; (19c8 <system_gclk_gen_set_config+0xd0>)
    1914:	9301      	str	r3, [sp, #4]
    1916:	4c2d      	ldr	r4, [pc, #180]	; (19cc <system_gclk_gen_set_config+0xd4>)
    1918:	2375      	movs	r3, #117	; 0x75
    191a:	47a0      	blx	r4
    191c:	e008      	b.n	1930 <system_gclk_gen_set_config+0x38>
    191e:	2900      	cmp	r1, #0
    1920:	d106      	bne.n	1930 <system_gclk_gen_set_config+0x38>
    1922:	482b      	ldr	r0, [pc, #172]	; (19d0 <system_gclk_gen_set_config+0xd8>)
    1924:	4927      	ldr	r1, [pc, #156]	; (19c4 <system_gclk_gen_set_config+0xcc>)
    1926:	4a28      	ldr	r2, [pc, #160]	; (19c8 <system_gclk_gen_set_config+0xd0>)
    1928:	2375      	movs	r3, #117	; 0x75
    192a:	4c2a      	ldr	r4, [pc, #168]	; (19d4 <system_gclk_gen_set_config+0xdc>)
    192c:	47a0      	blx	r4
    192e:	e7fe      	b.n	192e <system_gclk_gen_set_config+0x36>
    1930:	782c      	ldrb	r4, [r5, #0]
    1932:	786b      	ldrb	r3, [r5, #1]
    1934:	0224      	lsls	r4, r4, #8
    1936:	1c37      	adds	r7, r6, #0
    1938:	4334      	orrs	r4, r6
    193a:	2b00      	cmp	r3, #0
    193c:	d002      	beq.n	1944 <system_gclk_gen_set_config+0x4c>
    193e:	2380      	movs	r3, #128	; 0x80
    1940:	02db      	lsls	r3, r3, #11
    1942:	431c      	orrs	r4, r3
    1944:	7a6b      	ldrb	r3, [r5, #9]
    1946:	2b00      	cmp	r3, #0
    1948:	d002      	beq.n	1950 <system_gclk_gen_set_config+0x58>
    194a:	2380      	movs	r3, #128	; 0x80
    194c:	031b      	lsls	r3, r3, #12
    194e:	431c      	orrs	r4, r3
    1950:	686b      	ldr	r3, [r5, #4]
    1952:	2b01      	cmp	r3, #1
    1954:	d913      	bls.n	197e <system_gclk_gen_set_config+0x86>
    1956:	1e5f      	subs	r7, r3, #1
    1958:	401f      	ands	r7, r3
    195a:	2202      	movs	r2, #2
    195c:	2f00      	cmp	r7, #0
    195e:	d109      	bne.n	1974 <system_gclk_gen_set_config+0x7c>
    1960:	429a      	cmp	r2, r3
    1962:	d202      	bcs.n	196a <system_gclk_gen_set_config+0x72>
    1964:	3701      	adds	r7, #1
    1966:	0052      	lsls	r2, r2, #1
    1968:	e7fa      	b.n	1960 <system_gclk_gen_set_config+0x68>
    196a:	023f      	lsls	r7, r7, #8
    196c:	2380      	movs	r3, #128	; 0x80
    196e:	4337      	orrs	r7, r6
    1970:	035b      	lsls	r3, r3, #13
    1972:	e003      	b.n	197c <system_gclk_gen_set_config+0x84>
    1974:	021f      	lsls	r7, r3, #8
    1976:	2380      	movs	r3, #128	; 0x80
    1978:	4337      	orrs	r7, r6
    197a:	029b      	lsls	r3, r3, #10
    197c:	431c      	orrs	r4, r3
    197e:	7a2b      	ldrb	r3, [r5, #8]
    1980:	2b00      	cmp	r3, #0
    1982:	d002      	beq.n	198a <system_gclk_gen_set_config+0x92>
    1984:	2380      	movs	r3, #128	; 0x80
    1986:	039b      	lsls	r3, r3, #14
    1988:	431c      	orrs	r4, r3
    198a:	4d13      	ldr	r5, [pc, #76]	; (19d8 <system_gclk_gen_set_config+0xe0>)
    198c:	47a8      	blx	r5
    198e:	2800      	cmp	r0, #0
    1990:	d1fb      	bne.n	198a <system_gclk_gen_set_config+0x92>
    1992:	4b12      	ldr	r3, [pc, #72]	; (19dc <system_gclk_gen_set_config+0xe4>)
    1994:	4798      	blx	r3
    1996:	4b12      	ldr	r3, [pc, #72]	; (19e0 <system_gclk_gen_set_config+0xe8>)
    1998:	701e      	strb	r6, [r3, #0]
    199a:	47a8      	blx	r5
    199c:	2800      	cmp	r0, #0
    199e:	d1fc      	bne.n	199a <system_gclk_gen_set_config+0xa2>
    19a0:	4e10      	ldr	r6, [pc, #64]	; (19e4 <system_gclk_gen_set_config+0xec>)
    19a2:	60b7      	str	r7, [r6, #8]
    19a4:	47a8      	blx	r5
    19a6:	2800      	cmp	r0, #0
    19a8:	d1fc      	bne.n	19a4 <system_gclk_gen_set_config+0xac>
    19aa:	6872      	ldr	r2, [r6, #4]
    19ac:	2380      	movs	r3, #128	; 0x80
    19ae:	025b      	lsls	r3, r3, #9
    19b0:	4013      	ands	r3, r2
    19b2:	431c      	orrs	r4, r3
    19b4:	6074      	str	r4, [r6, #4]
    19b6:	4b0c      	ldr	r3, [pc, #48]	; (19e8 <system_gclk_gen_set_config+0xf0>)
    19b8:	4798      	blx	r3
    19ba:	bdf7      	pop	{r0, r1, r2, r4, r5, r6, r7, pc}
    19bc:	2000008c 	.word	0x2000008c
    19c0:	000038ff 	.word	0x000038ff
    19c4:	00003a46 	.word	0x00003a46
    19c8:	00003c6b 	.word	0x00003c6b
    19cc:	000001f5 	.word	0x000001f5
    19d0:	00003939 	.word	0x00003939
    19d4:	00002889 	.word	0x00002889
    19d8:	000018cd 	.word	0x000018cd
    19dc:	00000111 	.word	0x00000111
    19e0:	40000c08 	.word	0x40000c08
    19e4:	40000c00 	.word	0x40000c00
    19e8:	00000145 	.word	0x00000145

000019ec <system_gclk_gen_enable>:
    19ec:	b538      	push	{r3, r4, r5, lr}
    19ee:	1c05      	adds	r5, r0, #0
    19f0:	4c09      	ldr	r4, [pc, #36]	; (1a18 <system_gclk_gen_enable+0x2c>)
    19f2:	47a0      	blx	r4
    19f4:	2800      	cmp	r0, #0
    19f6:	d1fb      	bne.n	19f0 <system_gclk_gen_enable+0x4>
    19f8:	4b08      	ldr	r3, [pc, #32]	; (1a1c <system_gclk_gen_enable+0x30>)
    19fa:	4798      	blx	r3
    19fc:	4b08      	ldr	r3, [pc, #32]	; (1a20 <system_gclk_gen_enable+0x34>)
    19fe:	701d      	strb	r5, [r3, #0]
    1a00:	47a0      	blx	r4
    1a02:	2800      	cmp	r0, #0
    1a04:	d1fc      	bne.n	1a00 <system_gclk_gen_enable+0x14>
    1a06:	4b07      	ldr	r3, [pc, #28]	; (1a24 <system_gclk_gen_enable+0x38>)
    1a08:	2280      	movs	r2, #128	; 0x80
    1a0a:	6859      	ldr	r1, [r3, #4]
    1a0c:	0252      	lsls	r2, r2, #9
    1a0e:	430a      	orrs	r2, r1
    1a10:	605a      	str	r2, [r3, #4]
    1a12:	4b05      	ldr	r3, [pc, #20]	; (1a28 <system_gclk_gen_enable+0x3c>)
    1a14:	4798      	blx	r3
    1a16:	bd38      	pop	{r3, r4, r5, pc}
    1a18:	000018cd 	.word	0x000018cd
    1a1c:	00000111 	.word	0x00000111
    1a20:	40000c04 	.word	0x40000c04
    1a24:	40000c00 	.word	0x40000c00
    1a28:	00000145 	.word	0x00000145

00001a2c <system_gclk_gen_get_hz>:
    1a2c:	b5f7      	push	{r0, r1, r2, r4, r5, r6, r7, lr}
    1a2e:	1c06      	adds	r6, r0, #0
    1a30:	4f18      	ldr	r7, [pc, #96]	; (1a94 <system_gclk_gen_get_hz+0x68>)
    1a32:	47b8      	blx	r7
    1a34:	2800      	cmp	r0, #0
    1a36:	d1fb      	bne.n	1a30 <system_gclk_gen_get_hz+0x4>
    1a38:	4b17      	ldr	r3, [pc, #92]	; (1a98 <system_gclk_gen_get_hz+0x6c>)
    1a3a:	4798      	blx	r3
    1a3c:	4b17      	ldr	r3, [pc, #92]	; (1a9c <system_gclk_gen_get_hz+0x70>)
    1a3e:	701e      	strb	r6, [r3, #0]
    1a40:	47b8      	blx	r7
    1a42:	2800      	cmp	r0, #0
    1a44:	d1fc      	bne.n	1a40 <system_gclk_gen_get_hz+0x14>
    1a46:	4d16      	ldr	r5, [pc, #88]	; (1aa0 <system_gclk_gen_get_hz+0x74>)
    1a48:	4b16      	ldr	r3, [pc, #88]	; (1aa4 <system_gclk_gen_get_hz+0x78>)
    1a4a:	6868      	ldr	r0, [r5, #4]
    1a4c:	04c0      	lsls	r0, r0, #19
    1a4e:	0ec0      	lsrs	r0, r0, #27
    1a50:	4798      	blx	r3
    1a52:	4b12      	ldr	r3, [pc, #72]	; (1a9c <system_gclk_gen_get_hz+0x70>)
    1a54:	1c04      	adds	r4, r0, #0
    1a56:	701e      	strb	r6, [r3, #0]
    1a58:	686b      	ldr	r3, [r5, #4]
    1a5a:	02db      	lsls	r3, r3, #11
    1a5c:	0fdb      	lsrs	r3, r3, #31
    1a5e:	9301      	str	r3, [sp, #4]
    1a60:	4b11      	ldr	r3, [pc, #68]	; (1aa8 <system_gclk_gen_get_hz+0x7c>)
    1a62:	701e      	strb	r6, [r3, #0]
    1a64:	47b8      	blx	r7
    1a66:	2800      	cmp	r0, #0
    1a68:	d1fc      	bne.n	1a64 <system_gclk_gen_get_hz+0x38>
    1a6a:	68ad      	ldr	r5, [r5, #8]
    1a6c:	4b0f      	ldr	r3, [pc, #60]	; (1aac <system_gclk_gen_get_hz+0x80>)
    1a6e:	4798      	blx	r3
    1a70:	9b01      	ldr	r3, [sp, #4]
    1a72:	0a2d      	lsrs	r5, r5, #8
    1a74:	b2ad      	uxth	r5, r5
    1a76:	2b00      	cmp	r3, #0
    1a78:	d107      	bne.n	1a8a <system_gclk_gen_get_hz+0x5e>
    1a7a:	2d01      	cmp	r5, #1
    1a7c:	d907      	bls.n	1a8e <system_gclk_gen_get_hz+0x62>
    1a7e:	1c20      	adds	r0, r4, #0
    1a80:	1c29      	adds	r1, r5, #0
    1a82:	4b0b      	ldr	r3, [pc, #44]	; (1ab0 <system_gclk_gen_get_hz+0x84>)
    1a84:	4798      	blx	r3
    1a86:	1c04      	adds	r4, r0, #0
    1a88:	e001      	b.n	1a8e <system_gclk_gen_get_hz+0x62>
    1a8a:	3501      	adds	r5, #1
    1a8c:	40ec      	lsrs	r4, r5
    1a8e:	1c20      	adds	r0, r4, #0
    1a90:	bdfe      	pop	{r1, r2, r3, r4, r5, r6, r7, pc}
    1a92:	46c0      	nop			; (mov r8, r8)
    1a94:	000018cd 	.word	0x000018cd
    1a98:	00000111 	.word	0x00000111
    1a9c:	40000c04 	.word	0x40000c04
    1aa0:	40000c00 	.word	0x40000c00
    1aa4:	00001699 	.word	0x00001699
    1aa8:	40000c08 	.word	0x40000c08
    1aac:	00000145 	.word	0x00000145
    1ab0:	0000271d 	.word	0x0000271d

00001ab4 <system_gclk_chan_enable>:
    1ab4:	b510      	push	{r4, lr}
    1ab6:	4b07      	ldr	r3, [pc, #28]	; (1ad4 <system_gclk_chan_enable+0x20>)
    1ab8:	1c04      	adds	r4, r0, #0
    1aba:	4798      	blx	r3
    1abc:	4b06      	ldr	r3, [pc, #24]	; (1ad8 <system_gclk_chan_enable+0x24>)
    1abe:	2280      	movs	r2, #128	; 0x80
    1ac0:	701c      	strb	r4, [r3, #0]
    1ac2:	4b06      	ldr	r3, [pc, #24]	; (1adc <system_gclk_chan_enable+0x28>)
    1ac4:	01d2      	lsls	r2, r2, #7
    1ac6:	8859      	ldrh	r1, [r3, #2]
    1ac8:	430a      	orrs	r2, r1
    1aca:	805a      	strh	r2, [r3, #2]
    1acc:	4b04      	ldr	r3, [pc, #16]	; (1ae0 <system_gclk_chan_enable+0x2c>)
    1ace:	4798      	blx	r3
    1ad0:	bd10      	pop	{r4, pc}
    1ad2:	46c0      	nop			; (mov r8, r8)
    1ad4:	00000111 	.word	0x00000111
    1ad8:	40000c02 	.word	0x40000c02
    1adc:	40000c00 	.word	0x40000c00
    1ae0:	00000145 	.word	0x00000145

00001ae4 <system_gclk_chan_disable>:
    1ae4:	b537      	push	{r0, r1, r2, r4, r5, lr}
    1ae6:	4b1d      	ldr	r3, [pc, #116]	; (1b5c <system_gclk_chan_disable+0x78>)
    1ae8:	1c04      	adds	r4, r0, #0
    1aea:	4798      	blx	r3
    1aec:	4b1c      	ldr	r3, [pc, #112]	; (1b60 <system_gclk_chan_disable+0x7c>)
    1aee:	701c      	strb	r4, [r3, #0]
    1af0:	4b1c      	ldr	r3, [pc, #112]	; (1b64 <system_gclk_chan_disable+0x80>)
    1af2:	4c1d      	ldr	r4, [pc, #116]	; (1b68 <system_gclk_chan_disable+0x84>)
    1af4:	6818      	ldr	r0, [r3, #0]
    1af6:	8863      	ldrh	r3, [r4, #2]
    1af8:	0bdb      	lsrs	r3, r3, #15
    1afa:	2800      	cmp	r0, #0
    1afc:	d00c      	beq.n	1b18 <system_gclk_chan_disable+0x34>
    1afe:	2b00      	cmp	r3, #0
    1b00:	d014      	beq.n	1b2c <system_gclk_chan_disable+0x48>
    1b02:	4b1a      	ldr	r3, [pc, #104]	; (1b6c <system_gclk_chan_disable+0x88>)
    1b04:	2101      	movs	r1, #1
    1b06:	9300      	str	r3, [sp, #0]
    1b08:	4b19      	ldr	r3, [pc, #100]	; (1b70 <system_gclk_chan_disable+0x8c>)
    1b0a:	4a1a      	ldr	r2, [pc, #104]	; (1b74 <system_gclk_chan_disable+0x90>)
    1b0c:	9301      	str	r3, [sp, #4]
    1b0e:	2398      	movs	r3, #152	; 0x98
    1b10:	33ff      	adds	r3, #255	; 0xff
    1b12:	4d19      	ldr	r5, [pc, #100]	; (1b78 <system_gclk_chan_disable+0x94>)
    1b14:	47a8      	blx	r5
    1b16:	e009      	b.n	1b2c <system_gclk_chan_disable+0x48>
    1b18:	2b00      	cmp	r3, #0
    1b1a:	d007      	beq.n	1b2c <system_gclk_chan_disable+0x48>
    1b1c:	2398      	movs	r3, #152	; 0x98
    1b1e:	4817      	ldr	r0, [pc, #92]	; (1b7c <system_gclk_chan_disable+0x98>)
    1b20:	4913      	ldr	r1, [pc, #76]	; (1b70 <system_gclk_chan_disable+0x8c>)
    1b22:	4a14      	ldr	r2, [pc, #80]	; (1b74 <system_gclk_chan_disable+0x90>)
    1b24:	33ff      	adds	r3, #255	; 0xff
    1b26:	4c16      	ldr	r4, [pc, #88]	; (1b80 <system_gclk_chan_disable+0x9c>)
    1b28:	47a0      	blx	r4
    1b2a:	e7fe      	b.n	1b2a <system_gclk_chan_disable+0x46>
    1b2c:	8861      	ldrh	r1, [r4, #2]
    1b2e:	4b15      	ldr	r3, [pc, #84]	; (1b84 <system_gclk_chan_disable+0xa0>)
    1b30:	8862      	ldrh	r2, [r4, #2]
    1b32:	0509      	lsls	r1, r1, #20
    1b34:	401a      	ands	r2, r3
    1b36:	8062      	strh	r2, [r4, #2]
    1b38:	8860      	ldrh	r0, [r4, #2]
    1b3a:	4a13      	ldr	r2, [pc, #76]	; (1b88 <system_gclk_chan_disable+0xa4>)
    1b3c:	0f09      	lsrs	r1, r1, #28
    1b3e:	4002      	ands	r2, r0
    1b40:	8062      	strh	r2, [r4, #2]
    1b42:	1c18      	adds	r0, r3, #0
    1b44:	8862      	ldrh	r2, [r4, #2]
    1b46:	4b08      	ldr	r3, [pc, #32]	; (1b68 <system_gclk_chan_disable+0x84>)
    1b48:	0455      	lsls	r5, r2, #17
    1b4a:	d4fb      	bmi.n	1b44 <system_gclk_chan_disable+0x60>
    1b4c:	885a      	ldrh	r2, [r3, #2]
    1b4e:	0209      	lsls	r1, r1, #8
    1b50:	4002      	ands	r2, r0
    1b52:	430a      	orrs	r2, r1
    1b54:	805a      	strh	r2, [r3, #2]
    1b56:	4b0d      	ldr	r3, [pc, #52]	; (1b8c <system_gclk_chan_disable+0xa8>)
    1b58:	4798      	blx	r3
    1b5a:	bd37      	pop	{r0, r1, r2, r4, r5, pc}
    1b5c:	00000111 	.word	0x00000111
    1b60:	40000c02 	.word	0x40000c02
    1b64:	2000008c 	.word	0x2000008c
    1b68:	40000c00 	.word	0x40000c00
    1b6c:	000038ff 	.word	0x000038ff
    1b70:	00003ca8 	.word	0x00003ca8
    1b74:	00003c6b 	.word	0x00003c6b
    1b78:	000001f5 	.word	0x000001f5
    1b7c:	00003939 	.word	0x00003939
    1b80:	00002889 	.word	0x00002889
    1b84:	fffff0ff 	.word	0xfffff0ff
    1b88:	ffffbfff 	.word	0xffffbfff
    1b8c:	00000145 	.word	0x00000145

00001b90 <system_gclk_chan_set_config>:
    1b90:	b573      	push	{r0, r1, r4, r5, r6, lr}
    1b92:	4b13      	ldr	r3, [pc, #76]	; (1be0 <system_gclk_chan_set_config+0x50>)
    1b94:	1c05      	adds	r5, r0, #0
    1b96:	6818      	ldr	r0, [r3, #0]
    1b98:	1c0c      	adds	r4, r1, #0
    1b9a:	2800      	cmp	r0, #0
    1b9c:	d00c      	beq.n	1bb8 <system_gclk_chan_set_config+0x28>
    1b9e:	2900      	cmp	r1, #0
    1ba0:	d114      	bne.n	1bcc <system_gclk_chan_set_config+0x3c>
    1ba2:	4b10      	ldr	r3, [pc, #64]	; (1be4 <system_gclk_chan_set_config+0x54>)
    1ba4:	2101      	movs	r1, #1
    1ba6:	9300      	str	r3, [sp, #0]
    1ba8:	4b0f      	ldr	r3, [pc, #60]	; (1be8 <system_gclk_chan_set_config+0x58>)
    1baa:	4a10      	ldr	r2, [pc, #64]	; (1bec <system_gclk_chan_set_config+0x5c>)
    1bac:	9301      	str	r3, [sp, #4]
    1bae:	2362      	movs	r3, #98	; 0x62
    1bb0:	33ff      	adds	r3, #255	; 0xff
    1bb2:	4e0f      	ldr	r6, [pc, #60]	; (1bf0 <system_gclk_chan_set_config+0x60>)
    1bb4:	47b0      	blx	r6
    1bb6:	e009      	b.n	1bcc <system_gclk_chan_set_config+0x3c>
    1bb8:	2900      	cmp	r1, #0
    1bba:	d107      	bne.n	1bcc <system_gclk_chan_set_config+0x3c>
    1bbc:	2362      	movs	r3, #98	; 0x62
    1bbe:	480d      	ldr	r0, [pc, #52]	; (1bf4 <system_gclk_chan_set_config+0x64>)
    1bc0:	4909      	ldr	r1, [pc, #36]	; (1be8 <system_gclk_chan_set_config+0x58>)
    1bc2:	4a0a      	ldr	r2, [pc, #40]	; (1bec <system_gclk_chan_set_config+0x5c>)
    1bc4:	33ff      	adds	r3, #255	; 0xff
    1bc6:	4c0c      	ldr	r4, [pc, #48]	; (1bf8 <system_gclk_chan_set_config+0x68>)
    1bc8:	47a0      	blx	r4
    1bca:	e7fe      	b.n	1bca <system_gclk_chan_set_config+0x3a>
    1bcc:	7824      	ldrb	r4, [r4, #0]
    1bce:	1c28      	adds	r0, r5, #0
    1bd0:	4b0a      	ldr	r3, [pc, #40]	; (1bfc <system_gclk_chan_set_config+0x6c>)
    1bd2:	0224      	lsls	r4, r4, #8
    1bd4:	4798      	blx	r3
    1bd6:	432c      	orrs	r4, r5
    1bd8:	4b09      	ldr	r3, [pc, #36]	; (1c00 <system_gclk_chan_set_config+0x70>)
    1bda:	b2a4      	uxth	r4, r4
    1bdc:	805c      	strh	r4, [r3, #2]
    1bde:	bd73      	pop	{r0, r1, r4, r5, r6, pc}
    1be0:	2000008c 	.word	0x2000008c
    1be4:	000038ff 	.word	0x000038ff
    1be8:	00003a46 	.word	0x00003a46
    1bec:	00003c6b 	.word	0x00003c6b
    1bf0:	000001f5 	.word	0x000001f5
    1bf4:	00003939 	.word	0x00003939
    1bf8:	00002889 	.word	0x00002889
    1bfc:	00001ae5 	.word	0x00001ae5
    1c00:	40000c00 	.word	0x40000c00

00001c04 <system_gclk_chan_get_hz>:
    1c04:	b510      	push	{r4, lr}
    1c06:	4b07      	ldr	r3, [pc, #28]	; (1c24 <system_gclk_chan_get_hz+0x20>)
    1c08:	1c04      	adds	r4, r0, #0
    1c0a:	4798      	blx	r3
    1c0c:	4b06      	ldr	r3, [pc, #24]	; (1c28 <system_gclk_chan_get_hz+0x24>)
    1c0e:	701c      	strb	r4, [r3, #0]
    1c10:	4b06      	ldr	r3, [pc, #24]	; (1c2c <system_gclk_chan_get_hz+0x28>)
    1c12:	885c      	ldrh	r4, [r3, #2]
    1c14:	4b06      	ldr	r3, [pc, #24]	; (1c30 <system_gclk_chan_get_hz+0x2c>)
    1c16:	0524      	lsls	r4, r4, #20
    1c18:	0f24      	lsrs	r4, r4, #28
    1c1a:	4798      	blx	r3
    1c1c:	1c20      	adds	r0, r4, #0
    1c1e:	4b05      	ldr	r3, [pc, #20]	; (1c34 <system_gclk_chan_get_hz+0x30>)
    1c20:	4798      	blx	r3
    1c22:	bd10      	pop	{r4, pc}
    1c24:	00000111 	.word	0x00000111
    1c28:	40000c02 	.word	0x40000c02
    1c2c:	40000c00 	.word	0x40000c00
    1c30:	00000145 	.word	0x00000145
    1c34:	00001a2d 	.word	0x00001a2d

00001c38 <_system_pinmux_config>:
    1c38:	b5f7      	push	{r0, r1, r2, r4, r5, r6, r7, lr}
    1c3a:	4f39      	ldr	r7, [pc, #228]	; (1d20 <_system_pinmux_config+0xe8>)
    1c3c:	1c05      	adds	r5, r0, #0
    1c3e:	6838      	ldr	r0, [r7, #0]
    1c40:	1c0e      	adds	r6, r1, #0
    1c42:	1c14      	adds	r4, r2, #0
    1c44:	2800      	cmp	r0, #0
    1c46:	d00b      	beq.n	1c60 <_system_pinmux_config+0x28>
    1c48:	2d00      	cmp	r5, #0
    1c4a:	d112      	bne.n	1c72 <_system_pinmux_config+0x3a>
    1c4c:	4b35      	ldr	r3, [pc, #212]	; (1d24 <_system_pinmux_config+0xec>)
    1c4e:	2101      	movs	r1, #1
    1c50:	9300      	str	r3, [sp, #0]
    1c52:	4b35      	ldr	r3, [pc, #212]	; (1d28 <_system_pinmux_config+0xf0>)
    1c54:	4a35      	ldr	r2, [pc, #212]	; (1d2c <_system_pinmux_config+0xf4>)
    1c56:	9301      	str	r3, [sp, #4]
    1c58:	4f35      	ldr	r7, [pc, #212]	; (1d30 <_system_pinmux_config+0xf8>)
    1c5a:	2341      	movs	r3, #65	; 0x41
    1c5c:	47b8      	blx	r7
    1c5e:	e008      	b.n	1c72 <_system_pinmux_config+0x3a>
    1c60:	2d00      	cmp	r5, #0
    1c62:	d106      	bne.n	1c72 <_system_pinmux_config+0x3a>
    1c64:	4833      	ldr	r0, [pc, #204]	; (1d34 <_system_pinmux_config+0xfc>)
    1c66:	4930      	ldr	r1, [pc, #192]	; (1d28 <_system_pinmux_config+0xf0>)
    1c68:	4a30      	ldr	r2, [pc, #192]	; (1d2c <_system_pinmux_config+0xf4>)
    1c6a:	2341      	movs	r3, #65	; 0x41
    1c6c:	4c32      	ldr	r4, [pc, #200]	; (1d38 <_system_pinmux_config+0x100>)
    1c6e:	47a0      	blx	r4
    1c70:	e7fe      	b.n	1c70 <_system_pinmux_config+0x38>
    1c72:	4f2b      	ldr	r7, [pc, #172]	; (1d20 <_system_pinmux_config+0xe8>)
    1c74:	6838      	ldr	r0, [r7, #0]
    1c76:	2800      	cmp	r0, #0
    1c78:	d00b      	beq.n	1c92 <_system_pinmux_config+0x5a>
    1c7a:	2c00      	cmp	r4, #0
    1c7c:	d112      	bne.n	1ca4 <_system_pinmux_config+0x6c>
    1c7e:	4b29      	ldr	r3, [pc, #164]	; (1d24 <_system_pinmux_config+0xec>)
    1c80:	2101      	movs	r1, #1
    1c82:	9300      	str	r3, [sp, #0]
    1c84:	4b2d      	ldr	r3, [pc, #180]	; (1d3c <_system_pinmux_config+0x104>)
    1c86:	4a29      	ldr	r2, [pc, #164]	; (1d2c <_system_pinmux_config+0xf4>)
    1c88:	9301      	str	r3, [sp, #4]
    1c8a:	4f29      	ldr	r7, [pc, #164]	; (1d30 <_system_pinmux_config+0xf8>)
    1c8c:	2342      	movs	r3, #66	; 0x42
    1c8e:	47b8      	blx	r7
    1c90:	e008      	b.n	1ca4 <_system_pinmux_config+0x6c>
    1c92:	2c00      	cmp	r4, #0
    1c94:	d106      	bne.n	1ca4 <_system_pinmux_config+0x6c>
    1c96:	4827      	ldr	r0, [pc, #156]	; (1d34 <_system_pinmux_config+0xfc>)
    1c98:	4928      	ldr	r1, [pc, #160]	; (1d3c <_system_pinmux_config+0x104>)
    1c9a:	4a24      	ldr	r2, [pc, #144]	; (1d2c <_system_pinmux_config+0xf4>)
    1c9c:	2342      	movs	r3, #66	; 0x42
    1c9e:	4c26      	ldr	r4, [pc, #152]	; (1d38 <_system_pinmux_config+0x100>)
    1ca0:	47a0      	blx	r4
    1ca2:	e7fe      	b.n	1ca2 <_system_pinmux_config+0x6a>
    1ca4:	78e3      	ldrb	r3, [r4, #3]
    1ca6:	2b00      	cmp	r3, #0
    1ca8:	d11b      	bne.n	1ce2 <_system_pinmux_config+0xaa>
    1caa:	7822      	ldrb	r2, [r4, #0]
    1cac:	2a80      	cmp	r2, #128	; 0x80
    1cae:	d003      	beq.n	1cb8 <_system_pinmux_config+0x80>
    1cb0:	2380      	movs	r3, #128	; 0x80
    1cb2:	0612      	lsls	r2, r2, #24
    1cb4:	025b      	lsls	r3, r3, #9
    1cb6:	4313      	orrs	r3, r2
    1cb8:	7862      	ldrb	r2, [r4, #1]
    1cba:	2102      	movs	r1, #2
    1cbc:	438a      	bics	r2, r1
    1cbe:	d109      	bne.n	1cd4 <_system_pinmux_config+0x9c>
    1cc0:	78a2      	ldrb	r2, [r4, #2]
    1cc2:	2a00      	cmp	r2, #0
    1cc4:	d102      	bne.n	1ccc <_system_pinmux_config+0x94>
    1cc6:	2280      	movs	r2, #128	; 0x80
    1cc8:	0292      	lsls	r2, r2, #10
    1cca:	e001      	b.n	1cd0 <_system_pinmux_config+0x98>
    1ccc:	22c0      	movs	r2, #192	; 0xc0
    1cce:	02d2      	lsls	r2, r2, #11
    1cd0:	4313      	orrs	r3, r2
    1cd2:	606e      	str	r6, [r5, #4]
    1cd4:	7862      	ldrb	r2, [r4, #1]
    1cd6:	3a01      	subs	r2, #1
    1cd8:	2a01      	cmp	r2, #1
    1cda:	d804      	bhi.n	1ce6 <_system_pinmux_config+0xae>
    1cdc:	4a18      	ldr	r2, [pc, #96]	; (1d40 <_system_pinmux_config+0x108>)
    1cde:	4013      	ands	r3, r2
    1ce0:	e001      	b.n	1ce6 <_system_pinmux_config+0xae>
    1ce2:	606e      	str	r6, [r5, #4]
    1ce4:	2300      	movs	r3, #0
    1ce6:	22a0      	movs	r2, #160	; 0xa0
    1ce8:	b2b1      	uxth	r1, r6
    1cea:	05d2      	lsls	r2, r2, #23
    1cec:	430a      	orrs	r2, r1
    1cee:	431a      	orrs	r2, r3
    1cf0:	62aa      	str	r2, [r5, #40]	; 0x28
    1cf2:	22d0      	movs	r2, #208	; 0xd0
    1cf4:	0c31      	lsrs	r1, r6, #16
    1cf6:	0612      	lsls	r2, r2, #24
    1cf8:	430a      	orrs	r2, r1
    1cfa:	431a      	orrs	r2, r3
    1cfc:	62aa      	str	r2, [r5, #40]	; 0x28
    1cfe:	78e2      	ldrb	r2, [r4, #3]
    1d00:	2a00      	cmp	r2, #0
    1d02:	d10c      	bne.n	1d1e <_system_pinmux_config+0xe6>
    1d04:	035a      	lsls	r2, r3, #13
    1d06:	d505      	bpl.n	1d14 <_system_pinmux_config+0xdc>
    1d08:	78a3      	ldrb	r3, [r4, #2]
    1d0a:	2b01      	cmp	r3, #1
    1d0c:	d101      	bne.n	1d12 <_system_pinmux_config+0xda>
    1d0e:	61ae      	str	r6, [r5, #24]
    1d10:	e000      	b.n	1d14 <_system_pinmux_config+0xdc>
    1d12:	616e      	str	r6, [r5, #20]
    1d14:	7863      	ldrb	r3, [r4, #1]
    1d16:	3b01      	subs	r3, #1
    1d18:	2b01      	cmp	r3, #1
    1d1a:	d800      	bhi.n	1d1e <_system_pinmux_config+0xe6>
    1d1c:	60ae      	str	r6, [r5, #8]
    1d1e:	bdf7      	pop	{r0, r1, r2, r4, r5, r6, r7, pc}
    1d20:	2000008c 	.word	0x2000008c
    1d24:	000038ff 	.word	0x000038ff
    1d28:	00003aa0 	.word	0x00003aa0
    1d2c:	00003cc3 	.word	0x00003cc3
    1d30:	000001f5 	.word	0x000001f5
    1d34:	00003939 	.word	0x00003939
    1d38:	00002889 	.word	0x00002889
    1d3c:	00003a46 	.word	0x00003a46
    1d40:	fffbffff 	.word	0xfffbffff

00001d44 <system_pinmux_pin_set_config>:
    1d44:	b573      	push	{r0, r1, r4, r5, r6, lr}
    1d46:	09c3      	lsrs	r3, r0, #7
    1d48:	1c04      	adds	r4, r0, #0
    1d4a:	1c0d      	adds	r5, r1, #0
    1d4c:	2b00      	cmp	r3, #0
    1d4e:	d104      	bne.n	1d5a <system_pinmux_pin_set_config+0x16>
    1d50:	0940      	lsrs	r0, r0, #5
    1d52:	4b11      	ldr	r3, [pc, #68]	; (1d98 <system_pinmux_pin_set_config+0x54>)
    1d54:	01c0      	lsls	r0, r0, #7
    1d56:	18c0      	adds	r0, r0, r3
    1d58:	e016      	b.n	1d88 <system_pinmux_pin_set_config+0x44>
    1d5a:	4b10      	ldr	r3, [pc, #64]	; (1d9c <system_pinmux_pin_set_config+0x58>)
    1d5c:	4a10      	ldr	r2, [pc, #64]	; (1da0 <system_pinmux_pin_set_config+0x5c>)
    1d5e:	6818      	ldr	r0, [r3, #0]
    1d60:	4b10      	ldr	r3, [pc, #64]	; (1da4 <system_pinmux_pin_set_config+0x60>)
    1d62:	2800      	cmp	r0, #0
    1d64:	d009      	beq.n	1d7a <system_pinmux_pin_set_config+0x36>
    1d66:	4910      	ldr	r1, [pc, #64]	; (1da8 <system_pinmux_pin_set_config+0x64>)
    1d68:	9301      	str	r3, [sp, #4]
    1d6a:	9100      	str	r1, [sp, #0]
    1d6c:	23b1      	movs	r3, #177	; 0xb1
    1d6e:	2101      	movs	r1, #1
    1d70:	408b      	lsls	r3, r1
    1d72:	4e0e      	ldr	r6, [pc, #56]	; (1dac <system_pinmux_pin_set_config+0x68>)
    1d74:	47b0      	blx	r6
    1d76:	2000      	movs	r0, #0
    1d78:	e006      	b.n	1d88 <system_pinmux_pin_set_config+0x44>
    1d7a:	1c19      	adds	r1, r3, #0
    1d7c:	23b1      	movs	r3, #177	; 0xb1
    1d7e:	480c      	ldr	r0, [pc, #48]	; (1db0 <system_pinmux_pin_set_config+0x6c>)
    1d80:	005b      	lsls	r3, r3, #1
    1d82:	4c0c      	ldr	r4, [pc, #48]	; (1db4 <system_pinmux_pin_set_config+0x70>)
    1d84:	47a0      	blx	r4
    1d86:	e7fe      	b.n	1d86 <system_pinmux_pin_set_config+0x42>
    1d88:	211f      	movs	r1, #31
    1d8a:	400c      	ands	r4, r1
    1d8c:	2101      	movs	r1, #1
    1d8e:	1c2a      	adds	r2, r5, #0
    1d90:	40a1      	lsls	r1, r4
    1d92:	4b09      	ldr	r3, [pc, #36]	; (1db8 <system_pinmux_pin_set_config+0x74>)
    1d94:	4798      	blx	r3
    1d96:	bd73      	pop	{r0, r1, r4, r5, r6, pc}
    1d98:	41004400 	.word	0x41004400
    1d9c:	2000008c 	.word	0x2000008c
    1da0:	00003a4d 	.word	0x00003a4d
    1da4:	00003ae8 	.word	0x00003ae8
    1da8:	000038ff 	.word	0x000038ff
    1dac:	000001f5 	.word	0x000001f5
    1db0:	00003939 	.word	0x00003939
    1db4:	00002889 	.word	0x00002889
    1db8:	00001c39 	.word	0x00001c39

00001dbc <_system_dummy_init>:
    1dbc:	4770      	bx	lr
	...

00001dc0 <system_init>:
    1dc0:	b508      	push	{r3, lr}
    1dc2:	4b04      	ldr	r3, [pc, #16]	; (1dd4 <system_init+0x14>)
    1dc4:	4798      	blx	r3
    1dc6:	4b04      	ldr	r3, [pc, #16]	; (1dd8 <system_init+0x18>)
    1dc8:	4798      	blx	r3
    1dca:	4b04      	ldr	r3, [pc, #16]	; (1ddc <system_init+0x1c>)
    1dcc:	4798      	blx	r3
    1dce:	4b04      	ldr	r3, [pc, #16]	; (1de0 <system_init+0x20>)
    1dd0:	4798      	blx	r3
    1dd2:	bd08      	pop	{r3, pc}
    1dd4:	0000183d 	.word	0x0000183d
    1dd8:	000003d5 	.word	0x000003d5
    1ddc:	00001dbd 	.word	0x00001dbd
    1de0:	00001dbd 	.word	0x00001dbd

00001de4 <Dummy_Handler>:
    1de4:	e7fe      	b.n	1de4 <Dummy_Handler>
	...

00001de8 <Reset_Handler>:
    1de8:	b570      	push	{r4, r5, r6, lr}
    1dea:	4b20      	ldr	r3, [pc, #128]	; (1e6c <Reset_Handler+0x84>)
    1dec:	2202      	movs	r2, #2
    1dee:	625a      	str	r2, [r3, #36]	; 0x24
    1df0:	4b1f      	ldr	r3, [pc, #124]	; (1e70 <Reset_Handler+0x88>)
    1df2:	2103      	movs	r1, #3
    1df4:	78d8      	ldrb	r0, [r3, #3]
    1df6:	240c      	movs	r4, #12
    1df8:	4388      	bics	r0, r1
    1dfa:	4310      	orrs	r0, r2
    1dfc:	70d8      	strb	r0, [r3, #3]
    1dfe:	78dd      	ldrb	r5, [r3, #3]
    1e00:	2008      	movs	r0, #8
    1e02:	43a5      	bics	r5, r4
    1e04:	4305      	orrs	r5, r0
    1e06:	70dd      	strb	r5, [r3, #3]
    1e08:	4b1a      	ldr	r3, [pc, #104]	; (1e74 <Reset_Handler+0x8c>)
    1e0a:	2630      	movs	r6, #48	; 0x30
    1e0c:	7b9d      	ldrb	r5, [r3, #14]
    1e0e:	43b5      	bics	r5, r6
    1e10:	2620      	movs	r6, #32
    1e12:	4335      	orrs	r5, r6
    1e14:	739d      	strb	r5, [r3, #14]
    1e16:	7b9d      	ldrb	r5, [r3, #14]
    1e18:	43a5      	bics	r5, r4
    1e1a:	4328      	orrs	r0, r5
    1e1c:	7398      	strb	r0, [r3, #14]
    1e1e:	7b98      	ldrb	r0, [r3, #14]
    1e20:	4388      	bics	r0, r1
    1e22:	4302      	orrs	r2, r0
    1e24:	4914      	ldr	r1, [pc, #80]	; (1e78 <Reset_Handler+0x90>)
    1e26:	4815      	ldr	r0, [pc, #84]	; (1e7c <Reset_Handler+0x94>)
    1e28:	739a      	strb	r2, [r3, #14]
    1e2a:	4288      	cmp	r0, r1
    1e2c:	d001      	beq.n	1e32 <Reset_Handler+0x4a>
    1e2e:	2300      	movs	r3, #0
    1e30:	e001      	b.n	1e36 <Reset_Handler+0x4e>
    1e32:	4b13      	ldr	r3, [pc, #76]	; (1e80 <Reset_Handler+0x98>)
    1e34:	e007      	b.n	1e46 <Reset_Handler+0x5e>
    1e36:	4c13      	ldr	r4, [pc, #76]	; (1e84 <Reset_Handler+0x9c>)
    1e38:	18ca      	adds	r2, r1, r3
    1e3a:	42a2      	cmp	r2, r4
    1e3c:	d2f9      	bcs.n	1e32 <Reset_Handler+0x4a>
    1e3e:	58c4      	ldr	r4, [r0, r3]
    1e40:	3304      	adds	r3, #4
    1e42:	6014      	str	r4, [r2, #0]
    1e44:	e7f7      	b.n	1e36 <Reset_Handler+0x4e>
    1e46:	4a10      	ldr	r2, [pc, #64]	; (1e88 <Reset_Handler+0xa0>)
    1e48:	1d19      	adds	r1, r3, #4
    1e4a:	3b04      	subs	r3, #4
    1e4c:	4293      	cmp	r3, r2
    1e4e:	d203      	bcs.n	1e58 <Reset_Handler+0x70>
    1e50:	2200      	movs	r2, #0
    1e52:	601a      	str	r2, [r3, #0]
    1e54:	1c0b      	adds	r3, r1, #0
    1e56:	e7f6      	b.n	1e46 <Reset_Handler+0x5e>
    1e58:	4a0c      	ldr	r2, [pc, #48]	; (1e8c <Reset_Handler+0xa4>)
    1e5a:	4b0d      	ldr	r3, [pc, #52]	; (1e90 <Reset_Handler+0xa8>)
    1e5c:	217f      	movs	r1, #127	; 0x7f
    1e5e:	438a      	bics	r2, r1
    1e60:	609a      	str	r2, [r3, #8]
    1e62:	4b0c      	ldr	r3, [pc, #48]	; (1e94 <Reset_Handler+0xac>)
    1e64:	4798      	blx	r3
    1e66:	4b0c      	ldr	r3, [pc, #48]	; (1e98 <Reset_Handler+0xb0>)
    1e68:	4798      	blx	r3
    1e6a:	e7fe      	b.n	1e6a <Reset_Handler+0x82>
    1e6c:	410070fc 	.word	0x410070fc
    1e70:	41005000 	.word	0x41005000
    1e74:	41004800 	.word	0x41004800
    1e78:	20000000 	.word	0x20000000
    1e7c:	00003f7c 	.word	0x00003f7c
    1e80:	2000006c 	.word	0x2000006c
    1e84:	20000068 	.word	0x20000068
    1e88:	20000274 	.word	0x20000274
    1e8c:	00000000 	.word	0x00000000
    1e90:	e000ed00 	.word	0xe000ed00
    1e94:	00002819 	.word	0x00002819
    1e98:	000025a9 	.word	0x000025a9

00001e9c <_read>:
    1e9c:	b570      	push	{r4, r5, r6, lr}
    1e9e:	1c0e      	adds	r6, r1, #0
    1ea0:	1c14      	adds	r4, r2, #0
    1ea2:	2800      	cmp	r0, #0
    1ea4:	d10f      	bne.n	1ec6 <_read+0x2a>
    1ea6:	1c15      	adds	r5, r2, #0
    1ea8:	1931      	adds	r1, r6, r4
    1eaa:	1b49      	subs	r1, r1, r5
    1eac:	2d00      	cmp	r5, #0
    1eae:	dd06      	ble.n	1ebe <_read+0x22>
    1eb0:	4b06      	ldr	r3, [pc, #24]	; (1ecc <_read+0x30>)
    1eb2:	3d01      	subs	r5, #1
    1eb4:	6818      	ldr	r0, [r3, #0]
    1eb6:	4b06      	ldr	r3, [pc, #24]	; (1ed0 <_read+0x34>)
    1eb8:	681b      	ldr	r3, [r3, #0]
    1eba:	4798      	blx	r3
    1ebc:	e7f4      	b.n	1ea8 <_read+0xc>
    1ebe:	43e0      	mvns	r0, r4
    1ec0:	17c0      	asrs	r0, r0, #31
    1ec2:	4020      	ands	r0, r4
    1ec4:	e001      	b.n	1eca <_read+0x2e>
    1ec6:	2001      	movs	r0, #1
    1ec8:	4240      	negs	r0, r0
    1eca:	bd70      	pop	{r4, r5, r6, pc}
    1ecc:	2000014c 	.word	0x2000014c
    1ed0:	20000144 	.word	0x20000144

00001ed4 <_write>:
    1ed4:	3801      	subs	r0, #1
    1ed6:	b570      	push	{r4, r5, r6, lr}
    1ed8:	1c0d      	adds	r5, r1, #0
    1eda:	2802      	cmp	r0, #2
    1edc:	d80d      	bhi.n	1efa <_write+0x26>
    1ede:	188e      	adds	r6, r1, r2
    1ee0:	1c0c      	adds	r4, r1, #0
    1ee2:	1b60      	subs	r0, r4, r5
    1ee4:	42b4      	cmp	r4, r6
    1ee6:	d00a      	beq.n	1efe <_write+0x2a>
    1ee8:	4b05      	ldr	r3, [pc, #20]	; (1f00 <_write+0x2c>)
    1eea:	7821      	ldrb	r1, [r4, #0]
    1eec:	6818      	ldr	r0, [r3, #0]
    1eee:	4b05      	ldr	r3, [pc, #20]	; (1f04 <_write+0x30>)
    1ef0:	3401      	adds	r4, #1
    1ef2:	681b      	ldr	r3, [r3, #0]
    1ef4:	4798      	blx	r3
    1ef6:	2800      	cmp	r0, #0
    1ef8:	daf3      	bge.n	1ee2 <_write+0xe>
    1efa:	2001      	movs	r0, #1
    1efc:	4240      	negs	r0, r0
    1efe:	bd70      	pop	{r4, r5, r6, pc}
    1f00:	2000014c 	.word	0x2000014c
    1f04:	20000148 	.word	0x20000148

00001f08 <_sbrk>:
    1f08:	4b05      	ldr	r3, [pc, #20]	; (1f20 <_sbrk+0x18>)
    1f0a:	681a      	ldr	r2, [r3, #0]
    1f0c:	2a00      	cmp	r2, #0
    1f0e:	d101      	bne.n	1f14 <_sbrk+0xc>
    1f10:	4a04      	ldr	r2, [pc, #16]	; (1f24 <_sbrk+0x1c>)
    1f12:	601a      	str	r2, [r3, #0]
    1f14:	681a      	ldr	r2, [r3, #0]
    1f16:	1810      	adds	r0, r2, r0
    1f18:	6018      	str	r0, [r3, #0]
    1f1a:	1c10      	adds	r0, r2, #0
    1f1c:	4770      	bx	lr
    1f1e:	46c0      	nop			; (mov r8, r8)
    1f20:	20000120 	.word	0x20000120
    1f24:	20002278 	.word	0x20002278

00001f28 <_close>:
    1f28:	2001      	movs	r0, #1
    1f2a:	4240      	negs	r0, r0
    1f2c:	4770      	bx	lr

00001f2e <_fstat>:
    1f2e:	2380      	movs	r3, #128	; 0x80
    1f30:	019b      	lsls	r3, r3, #6
    1f32:	2000      	movs	r0, #0
    1f34:	604b      	str	r3, [r1, #4]
    1f36:	4770      	bx	lr

00001f38 <_isatty>:
    1f38:	2001      	movs	r0, #1
    1f3a:	4770      	bx	lr

00001f3c <_lseek>:
    1f3c:	2000      	movs	r0, #0
    1f3e:	4770      	bx	lr

00001f40 <usart_callback>:
    1f40:	4b01      	ldr	r3, [pc, #4]	; (1f48 <usart_callback+0x8>)
    1f42:	2201      	movs	r2, #1
    1f44:	701a      	strb	r2, [r3, #0]
    1f46:	4770      	bx	lr
    1f48:	20000184 	.word	0x20000184

00001f4c <usart_serial_putchar>:
    1f4c:	b538      	push	{r3, r4, r5, lr}
    1f4e:	1c05      	adds	r5, r0, #0
    1f50:	1c0c      	adds	r4, r1, #0
    1f52:	1c28      	adds	r0, r5, #0
    1f54:	1c21      	adds	r1, r4, #0
    1f56:	4b02      	ldr	r3, [pc, #8]	; (1f60 <usart_serial_putchar+0x14>)
    1f58:	4798      	blx	r3
    1f5a:	2800      	cmp	r0, #0
    1f5c:	d1f9      	bne.n	1f52 <usart_serial_putchar+0x6>
    1f5e:	bd38      	pop	{r3, r4, r5, pc}
    1f60:	00000e09 	.word	0x00000e09

00001f64 <run_transfer_single_8bit_char_test>:
    1f64:	b530      	push	{r4, r5, lr}
    1f66:	b087      	sub	sp, #28
    1f68:	466c      	mov	r4, sp
    1f6a:	2300      	movs	r3, #0
    1f6c:	82e3      	strh	r3, [r4, #22]
    1f6e:	2153      	movs	r1, #83	; 0x53
    1f70:	3416      	adds	r4, #22
    1f72:	4b0c      	ldr	r3, [pc, #48]	; (1fa4 <run_transfer_single_8bit_char_test+0x40>)
    1f74:	1c05      	adds	r5, r0, #0
    1f76:	480c      	ldr	r0, [pc, #48]	; (1fa8 <run_transfer_single_8bit_char_test+0x44>)
    1f78:	4798      	blx	r3
    1f7a:	4b0c      	ldr	r3, [pc, #48]	; (1fac <run_transfer_single_8bit_char_test+0x48>)
    1f7c:	480c      	ldr	r0, [pc, #48]	; (1fb0 <run_transfer_single_8bit_char_test+0x4c>)
    1f7e:	1c21      	adds	r1, r4, #0
    1f80:	4798      	blx	r3
    1f82:	8823      	ldrh	r3, [r4, #0]
    1f84:	2b53      	cmp	r3, #83	; 0x53
    1f86:	d00b      	beq.n	1fa0 <run_transfer_single_8bit_char_test+0x3c>
    1f88:	4a0a      	ldr	r2, [pc, #40]	; (1fb4 <run_transfer_single_8bit_char_test+0x50>)
    1f8a:	8823      	ldrh	r3, [r4, #0]
    1f8c:	9200      	str	r2, [sp, #0]
    1f8e:	2253      	movs	r2, #83	; 0x53
    1f90:	9201      	str	r2, [sp, #4]
    1f92:	9302      	str	r3, [sp, #8]
    1f94:	1c28      	adds	r0, r5, #0
    1f96:	2101      	movs	r1, #1
    1f98:	4a07      	ldr	r2, [pc, #28]	; (1fb8 <run_transfer_single_8bit_char_test+0x54>)
    1f9a:	23c4      	movs	r3, #196	; 0xc4
    1f9c:	4c07      	ldr	r4, [pc, #28]	; (1fbc <run_transfer_single_8bit_char_test+0x58>)
    1f9e:	47a0      	blx	r4
    1fa0:	b007      	add	sp, #28
    1fa2:	bd30      	pop	{r4, r5, pc}
    1fa4:	00000e09 	.word	0x00000e09
    1fa8:	200001fc 	.word	0x200001fc
    1fac:	00000ec5 	.word	0x00000ec5
    1fb0:	20000150 	.word	0x20000150
    1fb4:	00003d57 	.word	0x00003d57
    1fb8:	00003d44 	.word	0x00003d44
    1fbc:	000001f5 	.word	0x000001f5

00001fc0 <usart_serial_getchar>:
    1fc0:	b573      	push	{r0, r1, r4, r5, r6, lr}
    1fc2:	466c      	mov	r4, sp
    1fc4:	3406      	adds	r4, #6
    1fc6:	2300      	movs	r3, #0
    1fc8:	1c06      	adds	r6, r0, #0
    1fca:	1c0d      	adds	r5, r1, #0
    1fcc:	8023      	strh	r3, [r4, #0]
    1fce:	1c30      	adds	r0, r6, #0
    1fd0:	1c21      	adds	r1, r4, #0
    1fd2:	4b03      	ldr	r3, [pc, #12]	; (1fe0 <usart_serial_getchar+0x20>)
    1fd4:	4798      	blx	r3
    1fd6:	2800      	cmp	r0, #0
    1fd8:	d1f9      	bne.n	1fce <usart_serial_getchar+0xe>
    1fda:	8823      	ldrh	r3, [r4, #0]
    1fdc:	702b      	strb	r3, [r5, #0]
    1fde:	bd73      	pop	{r0, r1, r4, r5, r6, pc}
    1fe0:	00000ec5 	.word	0x00000ec5

00001fe4 <_usart_wait_for_sync>:
    1fe4:	b573      	push	{r0, r1, r4, r5, r6, lr}
    1fe6:	4d28      	ldr	r5, [pc, #160]	; (2088 <STACK_SIZE+0x88>)
    1fe8:	1c04      	adds	r4, r0, #0
    1fea:	6828      	ldr	r0, [r5, #0]
    1fec:	2800      	cmp	r0, #0
    1fee:	d00b      	beq.n	2008 <STACK_SIZE+0x8>
    1ff0:	2c00      	cmp	r4, #0
    1ff2:	d112      	bne.n	201a <STACK_SIZE+0x1a>
    1ff4:	4b25      	ldr	r3, [pc, #148]	; (208c <STACK_SIZE+0x8c>)
    1ff6:	2101      	movs	r1, #1
    1ff8:	9300      	str	r3, [sp, #0]
    1ffa:	4b25      	ldr	r3, [pc, #148]	; (2090 <STACK_SIZE+0x90>)
    1ffc:	4a25      	ldr	r2, [pc, #148]	; (2094 <STACK_SIZE+0x94>)
    1ffe:	9301      	str	r3, [sp, #4]
    2000:	4e25      	ldr	r6, [pc, #148]	; (2098 <STACK_SIZE+0x98>)
    2002:	4b26      	ldr	r3, [pc, #152]	; (209c <STACK_SIZE+0x9c>)
    2004:	47b0      	blx	r6
    2006:	e008      	b.n	201a <STACK_SIZE+0x1a>
    2008:	2c00      	cmp	r4, #0
    200a:	d106      	bne.n	201a <STACK_SIZE+0x1a>
    200c:	4824      	ldr	r0, [pc, #144]	; (20a0 <STACK_SIZE+0xa0>)
    200e:	4920      	ldr	r1, [pc, #128]	; (2090 <STACK_SIZE+0x90>)
    2010:	4a20      	ldr	r2, [pc, #128]	; (2094 <STACK_SIZE+0x94>)
    2012:	4b22      	ldr	r3, [pc, #136]	; (209c <STACK_SIZE+0x9c>)
    2014:	4c23      	ldr	r4, [pc, #140]	; (20a4 <STACK_SIZE+0xa4>)
    2016:	47a0      	blx	r4
    2018:	e7fe      	b.n	2018 <STACK_SIZE+0x18>
    201a:	6828      	ldr	r0, [r5, #0]
    201c:	2800      	cmp	r0, #0
    201e:	d00b      	beq.n	2038 <STACK_SIZE+0x38>
    2020:	2c00      	cmp	r4, #0
    2022:	d112      	bne.n	204a <STACK_SIZE+0x4a>
    2024:	4b19      	ldr	r3, [pc, #100]	; (208c <STACK_SIZE+0x8c>)
    2026:	2101      	movs	r1, #1
    2028:	9300      	str	r3, [sp, #0]
    202a:	4b19      	ldr	r3, [pc, #100]	; (2090 <STACK_SIZE+0x90>)
    202c:	4a19      	ldr	r2, [pc, #100]	; (2094 <STACK_SIZE+0x94>)
    202e:	9301      	str	r3, [sp, #4]
    2030:	4e19      	ldr	r6, [pc, #100]	; (2098 <STACK_SIZE+0x98>)
    2032:	4b1d      	ldr	r3, [pc, #116]	; (20a8 <STACK_SIZE+0xa8>)
    2034:	47b0      	blx	r6
    2036:	e008      	b.n	204a <STACK_SIZE+0x4a>
    2038:	2c00      	cmp	r4, #0
    203a:	d106      	bne.n	204a <STACK_SIZE+0x4a>
    203c:	4818      	ldr	r0, [pc, #96]	; (20a0 <STACK_SIZE+0xa0>)
    203e:	4914      	ldr	r1, [pc, #80]	; (2090 <STACK_SIZE+0x90>)
    2040:	4a14      	ldr	r2, [pc, #80]	; (2094 <STACK_SIZE+0x94>)
    2042:	4b19      	ldr	r3, [pc, #100]	; (20a8 <STACK_SIZE+0xa8>)
    2044:	4c17      	ldr	r4, [pc, #92]	; (20a4 <STACK_SIZE+0xa4>)
    2046:	47a0      	blx	r4
    2048:	e7fe      	b.n	2048 <STACK_SIZE+0x48>
    204a:	6828      	ldr	r0, [r5, #0]
    204c:	6823      	ldr	r3, [r4, #0]
    204e:	2800      	cmp	r0, #0
    2050:	d00b      	beq.n	206a <STACK_SIZE+0x6a>
    2052:	2b00      	cmp	r3, #0
    2054:	d112      	bne.n	207c <STACK_SIZE+0x7c>
    2056:	4b0d      	ldr	r3, [pc, #52]	; (208c <STACK_SIZE+0x8c>)
    2058:	2101      	movs	r1, #1
    205a:	9300      	str	r3, [sp, #0]
    205c:	4b13      	ldr	r3, [pc, #76]	; (20ac <STACK_SIZE+0xac>)
    205e:	4a0d      	ldr	r2, [pc, #52]	; (2094 <STACK_SIZE+0x94>)
    2060:	9301      	str	r3, [sp, #4]
    2062:	4e0d      	ldr	r6, [pc, #52]	; (2098 <STACK_SIZE+0x98>)
    2064:	4b12      	ldr	r3, [pc, #72]	; (20b0 <STACK_SIZE+0xb0>)
    2066:	47b0      	blx	r6
    2068:	e008      	b.n	207c <STACK_SIZE+0x7c>
    206a:	2b00      	cmp	r3, #0
    206c:	d106      	bne.n	207c <STACK_SIZE+0x7c>
    206e:	480c      	ldr	r0, [pc, #48]	; (20a0 <STACK_SIZE+0xa0>)
    2070:	490e      	ldr	r1, [pc, #56]	; (20ac <STACK_SIZE+0xac>)
    2072:	4a08      	ldr	r2, [pc, #32]	; (2094 <STACK_SIZE+0x94>)
    2074:	4b0e      	ldr	r3, [pc, #56]	; (20b0 <STACK_SIZE+0xb0>)
    2076:	4c0b      	ldr	r4, [pc, #44]	; (20a4 <STACK_SIZE+0xa4>)
    2078:	47a0      	blx	r4
    207a:	e7fe      	b.n	207a <STACK_SIZE+0x7a>
    207c:	6823      	ldr	r3, [r4, #0]
    207e:	69db      	ldr	r3, [r3, #28]
    2080:	2b00      	cmp	r3, #0
    2082:	d1ca      	bne.n	201a <STACK_SIZE+0x1a>
    2084:	bd73      	pop	{r0, r1, r4, r5, r6, pc}
    2086:	46c0      	nop			; (mov r8, r8)
    2088:	2000008c 	.word	0x2000008c
    208c:	000038ff 	.word	0x000038ff
    2090:	00003b53 	.word	0x00003b53
    2094:	00003b26 	.word	0x00003b26
    2098:	000001f5 	.word	0x000001f5
    209c:	000002fe 	.word	0x000002fe
    20a0:	00003939 	.word	0x00003939
    20a4:	00002889 	.word	0x00002889
    20a8:	000002e9 	.word	0x000002e9
    20ac:	00003b5a 	.word	0x00003b5a
    20b0:	000002ea 	.word	0x000002ea

000020b4 <usart_get_config_defaults>:
    20b4:	b537      	push	{r0, r1, r2, r4, r5, lr}
    20b6:	4b23      	ldr	r3, [pc, #140]	; (2144 <usart_get_config_defaults+0x90>)
    20b8:	1c04      	adds	r4, r0, #0
    20ba:	6818      	ldr	r0, [r3, #0]
    20bc:	2800      	cmp	r0, #0
    20be:	d00c      	beq.n	20da <usart_get_config_defaults+0x26>
    20c0:	2c00      	cmp	r4, #0
    20c2:	d114      	bne.n	20ee <usart_get_config_defaults+0x3a>
    20c4:	4b20      	ldr	r3, [pc, #128]	; (2148 <usart_get_config_defaults+0x94>)
    20c6:	2101      	movs	r1, #1
    20c8:	9300      	str	r3, [sp, #0]
    20ca:	4b20      	ldr	r3, [pc, #128]	; (214c <usart_get_config_defaults+0x98>)
    20cc:	4a20      	ldr	r2, [pc, #128]	; (2150 <usart_get_config_defaults+0x9c>)
    20ce:	9301      	str	r3, [sp, #4]
    20d0:	23c7      	movs	r3, #199	; 0xc7
    20d2:	009b      	lsls	r3, r3, #2
    20d4:	4d1f      	ldr	r5, [pc, #124]	; (2154 <usart_get_config_defaults+0xa0>)
    20d6:	47a8      	blx	r5
    20d8:	e009      	b.n	20ee <usart_get_config_defaults+0x3a>
    20da:	2c00      	cmp	r4, #0
    20dc:	d107      	bne.n	20ee <usart_get_config_defaults+0x3a>
    20de:	23c7      	movs	r3, #199	; 0xc7
    20e0:	481d      	ldr	r0, [pc, #116]	; (2158 <usart_get_config_defaults+0xa4>)
    20e2:	491a      	ldr	r1, [pc, #104]	; (214c <usart_get_config_defaults+0x98>)
    20e4:	4a1a      	ldr	r2, [pc, #104]	; (2150 <usart_get_config_defaults+0x9c>)
    20e6:	009b      	lsls	r3, r3, #2
    20e8:	4c1c      	ldr	r4, [pc, #112]	; (215c <usart_get_config_defaults+0xa8>)
    20ea:	47a0      	blx	r4
    20ec:	e7fe      	b.n	20ec <usart_get_config_defaults+0x38>
    20ee:	22ff      	movs	r2, #255	; 0xff
    20f0:	8122      	strh	r2, [r4, #8]
    20f2:	2380      	movs	r3, #128	; 0x80
    20f4:	2296      	movs	r2, #150	; 0x96
    20f6:	05db      	lsls	r3, r3, #23
    20f8:	0192      	lsls	r2, r2, #6
    20fa:	6023      	str	r3, [r4, #0]
    20fc:	6222      	str	r2, [r4, #32]
    20fe:	2300      	movs	r3, #0
    2100:	1d61      	adds	r1, r4, #5
    2102:	2201      	movs	r2, #1
    2104:	6063      	str	r3, [r4, #4]
    2106:	72a3      	strb	r3, [r4, #10]
    2108:	72e3      	strb	r3, [r4, #11]
    210a:	77ca      	strb	r2, [r1, #31]
    210c:	1da1      	adds	r1, r4, #6
    210e:	77ca      	strb	r2, [r1, #31]
    2110:	1de2      	adds	r2, r4, #7
    2112:	77d3      	strb	r3, [r2, #31]
    2114:	3201      	adds	r2, #1
    2116:	77d3      	strb	r3, [r2, #31]
    2118:	2288      	movs	r2, #136	; 0x88
    211a:	0352      	lsls	r2, r2, #13
    211c:	60e2      	str	r2, [r4, #12]
    211e:	1c22      	adds	r2, r4, #0
    2120:	322c      	adds	r2, #44	; 0x2c
    2122:	62a3      	str	r3, [r4, #40]	; 0x28
    2124:	7013      	strb	r3, [r2, #0]
    2126:	7053      	strb	r3, [r2, #1]
    2128:	2213      	movs	r2, #19
    212a:	6323      	str	r3, [r4, #48]	; 0x30
    212c:	6363      	str	r3, [r4, #52]	; 0x34
    212e:	63a3      	str	r3, [r4, #56]	; 0x38
    2130:	63e3      	str	r3, [r4, #60]	; 0x3c
    2132:	6163      	str	r3, [r4, #20]
    2134:	8223      	strh	r3, [r4, #16]
    2136:	76e3      	strb	r3, [r4, #27]
    2138:	7623      	strb	r3, [r4, #24]
    213a:	7723      	strb	r3, [r4, #28]
    213c:	7663      	strb	r3, [r4, #25]
    213e:	76a2      	strb	r2, [r4, #26]
    2140:	7763      	strb	r3, [r4, #29]
    2142:	bd37      	pop	{r0, r1, r2, r4, r5, pc}
    2144:	2000008c 	.word	0x2000008c
    2148:	000038ff 	.word	0x000038ff
    214c:	00003a46 	.word	0x00003a46
    2150:	00003b26 	.word	0x00003b26
    2154:	000001f5 	.word	0x000001f5
    2158:	00003939 	.word	0x00003939
    215c:	00002889 	.word	0x00002889

00002160 <usart_disable>:
    2160:	b573      	push	{r0, r1, r4, r5, r6, lr}
    2162:	4b24      	ldr	r3, [pc, #144]	; (21f4 <usart_disable+0x94>)
    2164:	1c04      	adds	r4, r0, #0
    2166:	6818      	ldr	r0, [r3, #0]
    2168:	1c1d      	adds	r5, r3, #0
    216a:	2800      	cmp	r0, #0
    216c:	d00c      	beq.n	2188 <usart_disable+0x28>
    216e:	2c00      	cmp	r4, #0
    2170:	d114      	bne.n	219c <usart_disable+0x3c>
    2172:	4b21      	ldr	r3, [pc, #132]	; (21f8 <usart_disable+0x98>)
    2174:	2101      	movs	r1, #1
    2176:	9300      	str	r3, [sp, #0]
    2178:	4b20      	ldr	r3, [pc, #128]	; (21fc <usart_disable+0x9c>)
    217a:	4a21      	ldr	r2, [pc, #132]	; (2200 <usart_disable+0xa0>)
    217c:	9301      	str	r3, [sp, #4]
    217e:	23dd      	movs	r3, #221	; 0xdd
    2180:	009b      	lsls	r3, r3, #2
    2182:	4e20      	ldr	r6, [pc, #128]	; (2204 <usart_disable+0xa4>)
    2184:	47b0      	blx	r6
    2186:	e009      	b.n	219c <usart_disable+0x3c>
    2188:	2c00      	cmp	r4, #0
    218a:	d107      	bne.n	219c <usart_disable+0x3c>
    218c:	23dd      	movs	r3, #221	; 0xdd
    218e:	481e      	ldr	r0, [pc, #120]	; (2208 <usart_disable+0xa8>)
    2190:	491a      	ldr	r1, [pc, #104]	; (21fc <usart_disable+0x9c>)
    2192:	4a1b      	ldr	r2, [pc, #108]	; (2200 <usart_disable+0xa0>)
    2194:	009b      	lsls	r3, r3, #2
    2196:	4c1d      	ldr	r4, [pc, #116]	; (220c <usart_disable+0xac>)
    2198:	47a0      	blx	r4
    219a:	e7fe      	b.n	219a <usart_disable+0x3a>
    219c:	6828      	ldr	r0, [r5, #0]
    219e:	6823      	ldr	r3, [r4, #0]
    21a0:	2800      	cmp	r0, #0
    21a2:	d00b      	beq.n	21bc <usart_disable+0x5c>
    21a4:	2b00      	cmp	r3, #0
    21a6:	d112      	bne.n	21ce <usart_disable+0x6e>
    21a8:	4b13      	ldr	r3, [pc, #76]	; (21f8 <usart_disable+0x98>)
    21aa:	2101      	movs	r1, #1
    21ac:	9300      	str	r3, [sp, #0]
    21ae:	4b18      	ldr	r3, [pc, #96]	; (2210 <usart_disable+0xb0>)
    21b0:	4a13      	ldr	r2, [pc, #76]	; (2200 <usart_disable+0xa0>)
    21b2:	9301      	str	r3, [sp, #4]
    21b4:	4d13      	ldr	r5, [pc, #76]	; (2204 <usart_disable+0xa4>)
    21b6:	4b17      	ldr	r3, [pc, #92]	; (2214 <usart_disable+0xb4>)
    21b8:	47a8      	blx	r5
    21ba:	e008      	b.n	21ce <usart_disable+0x6e>
    21bc:	2b00      	cmp	r3, #0
    21be:	d106      	bne.n	21ce <usart_disable+0x6e>
    21c0:	4811      	ldr	r0, [pc, #68]	; (2208 <usart_disable+0xa8>)
    21c2:	4913      	ldr	r1, [pc, #76]	; (2210 <usart_disable+0xb0>)
    21c4:	4a0e      	ldr	r2, [pc, #56]	; (2200 <usart_disable+0xa0>)
    21c6:	4b13      	ldr	r3, [pc, #76]	; (2214 <usart_disable+0xb4>)
    21c8:	4c10      	ldr	r4, [pc, #64]	; (220c <usart_disable+0xac>)
    21ca:	47a0      	blx	r4
    21cc:	e7fe      	b.n	21cc <usart_disable+0x6c>
    21ce:	6825      	ldr	r5, [r4, #0]
    21d0:	4b11      	ldr	r3, [pc, #68]	; (2218 <usart_disable+0xb8>)
    21d2:	1c28      	adds	r0, r5, #0
    21d4:	4798      	blx	r3
    21d6:	231f      	movs	r3, #31
    21d8:	4018      	ands	r0, r3
    21da:	2301      	movs	r3, #1
    21dc:	4083      	lsls	r3, r0
    21de:	1c18      	adds	r0, r3, #0
    21e0:	4b0e      	ldr	r3, [pc, #56]	; (221c <usart_disable+0xbc>)
    21e2:	67d8      	str	r0, [r3, #124]	; 0x7c
    21e4:	1c20      	adds	r0, r4, #0
    21e6:	4b0e      	ldr	r3, [pc, #56]	; (2220 <usart_disable+0xc0>)
    21e8:	4798      	blx	r3
    21ea:	682b      	ldr	r3, [r5, #0]
    21ec:	2202      	movs	r2, #2
    21ee:	4393      	bics	r3, r2
    21f0:	602b      	str	r3, [r5, #0]
    21f2:	bd73      	pop	{r0, r1, r4, r5, r6, pc}
    21f4:	2000008c 	.word	0x2000008c
    21f8:	000038ff 	.word	0x000038ff
    21fc:	00003b53 	.word	0x00003b53
    2200:	00003b26 	.word	0x00003b26
    2204:	000001f5 	.word	0x000001f5
    2208:	00003939 	.word	0x00003939
    220c:	00002889 	.word	0x00002889
    2210:	00003b5a 	.word	0x00003b5a
    2214:	00000375 	.word	0x00000375
    2218:	000008dd 	.word	0x000008dd
    221c:	e000e104 	.word	0xe000e104
    2220:	00001fe5 	.word	0x00001fe5

00002224 <usart_enable>:
    2224:	b573      	push	{r0, r1, r4, r5, r6, lr}
    2226:	4b24      	ldr	r3, [pc, #144]	; (22b8 <usart_enable+0x94>)
    2228:	1c04      	adds	r4, r0, #0
    222a:	6818      	ldr	r0, [r3, #0]
    222c:	1c1d      	adds	r5, r3, #0
    222e:	2800      	cmp	r0, #0
    2230:	d00b      	beq.n	224a <usart_enable+0x26>
    2232:	2c00      	cmp	r4, #0
    2234:	d112      	bne.n	225c <usart_enable+0x38>
    2236:	4b21      	ldr	r3, [pc, #132]	; (22bc <usart_enable+0x98>)
    2238:	2101      	movs	r1, #1
    223a:	9300      	str	r3, [sp, #0]
    223c:	4b20      	ldr	r3, [pc, #128]	; (22c0 <usart_enable+0x9c>)
    223e:	4a21      	ldr	r2, [pc, #132]	; (22c4 <usart_enable+0xa0>)
    2240:	9301      	str	r3, [sp, #4]
    2242:	4e21      	ldr	r6, [pc, #132]	; (22c8 <usart_enable+0xa4>)
    2244:	4b21      	ldr	r3, [pc, #132]	; (22cc <usart_enable+0xa8>)
    2246:	47b0      	blx	r6
    2248:	e008      	b.n	225c <usart_enable+0x38>
    224a:	2c00      	cmp	r4, #0
    224c:	d106      	bne.n	225c <usart_enable+0x38>
    224e:	4820      	ldr	r0, [pc, #128]	; (22d0 <usart_enable+0xac>)
    2250:	491b      	ldr	r1, [pc, #108]	; (22c0 <usart_enable+0x9c>)
    2252:	4a1c      	ldr	r2, [pc, #112]	; (22c4 <usart_enable+0xa0>)
    2254:	4b1d      	ldr	r3, [pc, #116]	; (22cc <usart_enable+0xa8>)
    2256:	4c1f      	ldr	r4, [pc, #124]	; (22d4 <usart_enable+0xb0>)
    2258:	47a0      	blx	r4
    225a:	e7fe      	b.n	225a <usart_enable+0x36>
    225c:	6828      	ldr	r0, [r5, #0]
    225e:	6823      	ldr	r3, [r4, #0]
    2260:	2800      	cmp	r0, #0
    2262:	d00c      	beq.n	227e <usart_enable+0x5a>
    2264:	2b00      	cmp	r3, #0
    2266:	d114      	bne.n	2292 <usart_enable+0x6e>
    2268:	4b14      	ldr	r3, [pc, #80]	; (22bc <usart_enable+0x98>)
    226a:	2101      	movs	r1, #1
    226c:	9300      	str	r3, [sp, #0]
    226e:	4b1a      	ldr	r3, [pc, #104]	; (22d8 <usart_enable+0xb4>)
    2270:	4a14      	ldr	r2, [pc, #80]	; (22c4 <usart_enable+0xa0>)
    2272:	9301      	str	r3, [sp, #4]
    2274:	23d6      	movs	r3, #214	; 0xd6
    2276:	009b      	lsls	r3, r3, #2
    2278:	4d13      	ldr	r5, [pc, #76]	; (22c8 <usart_enable+0xa4>)
    227a:	47a8      	blx	r5
    227c:	e009      	b.n	2292 <usart_enable+0x6e>
    227e:	2b00      	cmp	r3, #0
    2280:	d107      	bne.n	2292 <usart_enable+0x6e>
    2282:	23d6      	movs	r3, #214	; 0xd6
    2284:	4812      	ldr	r0, [pc, #72]	; (22d0 <usart_enable+0xac>)
    2286:	4914      	ldr	r1, [pc, #80]	; (22d8 <usart_enable+0xb4>)
    2288:	4a0e      	ldr	r2, [pc, #56]	; (22c4 <usart_enable+0xa0>)
    228a:	009b      	lsls	r3, r3, #2
    228c:	4c11      	ldr	r4, [pc, #68]	; (22d4 <usart_enable+0xb0>)
    228e:	47a0      	blx	r4
    2290:	e7fe      	b.n	2290 <usart_enable+0x6c>
    2292:	6825      	ldr	r5, [r4, #0]
    2294:	4b11      	ldr	r3, [pc, #68]	; (22dc <usart_enable+0xb8>)
    2296:	1c28      	adds	r0, r5, #0
    2298:	4798      	blx	r3
    229a:	231f      	movs	r3, #31
    229c:	4018      	ands	r0, r3
    229e:	2301      	movs	r3, #1
    22a0:	4083      	lsls	r3, r0
    22a2:	1c18      	adds	r0, r3, #0
    22a4:	4b0e      	ldr	r3, [pc, #56]	; (22e0 <usart_enable+0xbc>)
    22a6:	6018      	str	r0, [r3, #0]
    22a8:	1c20      	adds	r0, r4, #0
    22aa:	4b0e      	ldr	r3, [pc, #56]	; (22e4 <usart_enable+0xc0>)
    22ac:	4798      	blx	r3
    22ae:	682b      	ldr	r3, [r5, #0]
    22b0:	2202      	movs	r2, #2
    22b2:	4313      	orrs	r3, r2
    22b4:	602b      	str	r3, [r5, #0]
    22b6:	bd73      	pop	{r0, r1, r4, r5, r6, pc}
    22b8:	2000008c 	.word	0x2000008c
    22bc:	000038ff 	.word	0x000038ff
    22c0:	00003b53 	.word	0x00003b53
    22c4:	00003b26 	.word	0x00003b26
    22c8:	000001f5 	.word	0x000001f5
    22cc:	00000357 	.word	0x00000357
    22d0:	00003939 	.word	0x00003939
    22d4:	00002889 	.word	0x00002889
    22d8:	00003b5a 	.word	0x00003b5a
    22dc:	000008dd 	.word	0x000008dd
    22e0:	e000e100 	.word	0xe000e100
    22e4:	00001fe5 	.word	0x00001fe5

000022e8 <run_transfer_single_9bit_char_test>:
    22e8:	b5f0      	push	{r4, r5, r6, r7, lr}
    22ea:	4c27      	ldr	r4, [pc, #156]	; (2388 <run_transfer_single_9bit_char_test+0xa0>)
    22ec:	b089      	sub	sp, #36	; 0x24
    22ee:	9005      	str	r0, [sp, #20]
    22f0:	4f26      	ldr	r7, [pc, #152]	; (238c <run_transfer_single_9bit_char_test+0xa4>)
    22f2:	1c20      	adds	r0, r4, #0
    22f4:	47b8      	blx	r7
    22f6:	4a26      	ldr	r2, [pc, #152]	; (2390 <run_transfer_single_9bit_char_test+0xa8>)
    22f8:	2301      	movs	r3, #1
    22fa:	72d3      	strb	r3, [r2, #11]
    22fc:	4925      	ldr	r1, [pc, #148]	; (2394 <run_transfer_single_9bit_char_test+0xac>)
    22fe:	4b26      	ldr	r3, [pc, #152]	; (2398 <run_transfer_single_9bit_char_test+0xb0>)
    2300:	1c20      	adds	r0, r4, #0
    2302:	4798      	blx	r3
    2304:	4e25      	ldr	r6, [pc, #148]	; (239c <run_transfer_single_9bit_char_test+0xb4>)
    2306:	1c20      	adds	r0, r4, #0
    2308:	47b0      	blx	r6
    230a:	4d25      	ldr	r5, [pc, #148]	; (23a0 <run_transfer_single_9bit_char_test+0xb8>)
    230c:	1c28      	adds	r0, r5, #0
    230e:	47b8      	blx	r7
    2310:	4a24      	ldr	r2, [pc, #144]	; (23a4 <run_transfer_single_9bit_char_test+0xbc>)
    2312:	2301      	movs	r3, #1
    2314:	72d3      	strb	r3, [r2, #11]
    2316:	4924      	ldr	r1, [pc, #144]	; (23a8 <run_transfer_single_9bit_char_test+0xc0>)
    2318:	4b1f      	ldr	r3, [pc, #124]	; (2398 <run_transfer_single_9bit_char_test+0xb0>)
    231a:	1c28      	adds	r0, r5, #0
    231c:	4798      	blx	r3
    231e:	1c28      	adds	r0, r5, #0
    2320:	47b0      	blx	r6
    2322:	26b3      	movs	r6, #179	; 0xb3
    2324:	1c28      	adds	r0, r5, #0
    2326:	0076      	lsls	r6, r6, #1
    2328:	466d      	mov	r5, sp
    232a:	351e      	adds	r5, #30
    232c:	1c31      	adds	r1, r6, #0
    232e:	4b1f      	ldr	r3, [pc, #124]	; (23ac <run_transfer_single_9bit_char_test+0xc4>)
    2330:	4798      	blx	r3
    2332:	1c29      	adds	r1, r5, #0
    2334:	4b1e      	ldr	r3, [pc, #120]	; (23b0 <run_transfer_single_9bit_char_test+0xc8>)
    2336:	1c20      	adds	r0, r4, #0
    2338:	4798      	blx	r3
    233a:	882b      	ldrh	r3, [r5, #0]
    233c:	4d14      	ldr	r5, [pc, #80]	; (2390 <run_transfer_single_9bit_char_test+0xa8>)
    233e:	42b3      	cmp	r3, r6
    2340:	d009      	beq.n	2356 <run_transfer_single_9bit_char_test+0x6e>
    2342:	4a1c      	ldr	r2, [pc, #112]	; (23b4 <run_transfer_single_9bit_char_test+0xcc>)
    2344:	9601      	str	r6, [sp, #4]
    2346:	9200      	str	r2, [sp, #0]
    2348:	9302      	str	r3, [sp, #8]
    234a:	9805      	ldr	r0, [sp, #20]
    234c:	2101      	movs	r1, #1
    234e:	4a1a      	ldr	r2, [pc, #104]	; (23b8 <run_transfer_single_9bit_char_test+0xd0>)
    2350:	23e8      	movs	r3, #232	; 0xe8
    2352:	4e1a      	ldr	r6, [pc, #104]	; (23bc <run_transfer_single_9bit_char_test+0xd4>)
    2354:	47b0      	blx	r6
    2356:	1c20      	adds	r0, r4, #0
    2358:	2600      	movs	r6, #0
    235a:	47b8      	blx	r7
    235c:	490d      	ldr	r1, [pc, #52]	; (2394 <run_transfer_single_9bit_char_test+0xac>)
    235e:	72ee      	strb	r6, [r5, #11]
    2360:	1c2a      	adds	r2, r5, #0
    2362:	1c20      	adds	r0, r4, #0
    2364:	4d0c      	ldr	r5, [pc, #48]	; (2398 <run_transfer_single_9bit_char_test+0xb0>)
    2366:	47a8      	blx	r5
    2368:	1c20      	adds	r0, r4, #0
    236a:	4a0c      	ldr	r2, [pc, #48]	; (239c <run_transfer_single_9bit_char_test+0xb4>)
    236c:	4790      	blx	r2
    236e:	4c0c      	ldr	r4, [pc, #48]	; (23a0 <run_transfer_single_9bit_char_test+0xb8>)
    2370:	1c20      	adds	r0, r4, #0
    2372:	47b8      	blx	r7
    2374:	4a0b      	ldr	r2, [pc, #44]	; (23a4 <run_transfer_single_9bit_char_test+0xbc>)
    2376:	490c      	ldr	r1, [pc, #48]	; (23a8 <run_transfer_single_9bit_char_test+0xc0>)
    2378:	1c20      	adds	r0, r4, #0
    237a:	72d6      	strb	r6, [r2, #11]
    237c:	47a8      	blx	r5
    237e:	1c20      	adds	r0, r4, #0
    2380:	4b06      	ldr	r3, [pc, #24]	; (239c <run_transfer_single_9bit_char_test+0xb4>)
    2382:	4798      	blx	r3
    2384:	b009      	add	sp, #36	; 0x24
    2386:	bdf0      	pop	{r4, r5, r6, r7, pc}
    2388:	20000150 	.word	0x20000150
    238c:	00002161 	.word	0x00002161
    2390:	20000230 	.word	0x20000230
    2394:	42001800 	.word	0x42001800
    2398:	00000a35 	.word	0x00000a35
    239c:	00002225 	.word	0x00002225
    23a0:	200001fc 	.word	0x200001fc
    23a4:	200001bc 	.word	0x200001bc
    23a8:	42000800 	.word	0x42000800
    23ac:	00000e09 	.word	0x00000e09
    23b0:	00000ec5 	.word	0x00000ec5
    23b4:	00003d57 	.word	0x00003d57
    23b8:	00003d44 	.word	0x00003d44
    23bc:	000001f5 	.word	0x000001f5

000023c0 <run_buffer_write_blocking_read_interrupt_test>:
    23c0:	b5f0      	push	{r4, r5, r6, r7, lr}
    23c2:	b08f      	sub	sp, #60	; 0x3c
    23c4:	ad06      	add	r5, sp, #24
    23c6:	2700      	movs	r7, #0
    23c8:	9005      	str	r0, [sp, #20]
    23ca:	492c      	ldr	r1, [pc, #176]	; (247c <run_buffer_write_blocking_read_interrupt_test+0xbc>)
    23cc:	220d      	movs	r2, #13
    23ce:	4b2c      	ldr	r3, [pc, #176]	; (2480 <run_buffer_write_blocking_read_interrupt_test+0xc0>)
    23d0:	1c28      	adds	r0, r5, #0
    23d2:	4798      	blx	r3
    23d4:	1c39      	adds	r1, r7, #0
    23d6:	2209      	movs	r2, #9
    23d8:	4b2a      	ldr	r3, [pc, #168]	; (2484 <run_buffer_write_blocking_read_interrupt_test+0xc4>)
    23da:	a80b      	add	r0, sp, #44	; 0x2c
    23dc:	970a      	str	r7, [sp, #40]	; 0x28
    23de:	4798      	blx	r3
    23e0:	4e29      	ldr	r6, [pc, #164]	; (2488 <run_buffer_write_blocking_read_interrupt_test+0xc8>)
    23e2:	492a      	ldr	r1, [pc, #168]	; (248c <run_buffer_write_blocking_read_interrupt_test+0xcc>)
    23e4:	1c30      	adds	r0, r6, #0
    23e6:	2201      	movs	r2, #1
    23e8:	4b29      	ldr	r3, [pc, #164]	; (2490 <run_buffer_write_blocking_read_interrupt_test+0xd0>)
    23ea:	4798      	blx	r3
    23ec:	1c33      	adds	r3, r6, #0
    23ee:	3331      	adds	r3, #49	; 0x31
    23f0:	781a      	ldrb	r2, [r3, #0]
    23f2:	2102      	movs	r1, #2
    23f4:	430a      	orrs	r2, r1
    23f6:	701a      	strb	r2, [r3, #0]
    23f8:	4b26      	ldr	r3, [pc, #152]	; (2494 <run_buffer_write_blocking_read_interrupt_test+0xd4>)
    23fa:	ac0a      	add	r4, sp, #40	; 0x28
    23fc:	701f      	strb	r7, [r3, #0]
    23fe:	1c21      	adds	r1, r4, #0
    2400:	220d      	movs	r2, #13
    2402:	4b25      	ldr	r3, [pc, #148]	; (2498 <run_buffer_write_blocking_read_interrupt_test+0xd8>)
    2404:	1c30      	adds	r0, r6, #0
    2406:	4798      	blx	r3
    2408:	220d      	movs	r2, #13
    240a:	4b24      	ldr	r3, [pc, #144]	; (249c <run_buffer_write_blocking_read_interrupt_test+0xdc>)
    240c:	4824      	ldr	r0, [pc, #144]	; (24a0 <run_buffer_write_blocking_read_interrupt_test+0xe0>)
    240e:	1c29      	adds	r1, r5, #0
    2410:	4798      	blx	r3
    2412:	4b24      	ldr	r3, [pc, #144]	; (24a4 <run_buffer_write_blocking_read_interrupt_test+0xe4>)
    2414:	4a1f      	ldr	r2, [pc, #124]	; (2494 <run_buffer_write_blocking_read_interrupt_test+0xd4>)
    2416:	7811      	ldrb	r1, [r2, #0]
    2418:	3b01      	subs	r3, #1
    241a:	b29b      	uxth	r3, r3
    241c:	2900      	cmp	r1, #0
    241e:	d102      	bne.n	2426 <run_buffer_write_blocking_read_interrupt_test+0x66>
    2420:	2b00      	cmp	r3, #0
    2422:	d1f8      	bne.n	2416 <run_buffer_write_blocking_read_interrupt_test+0x56>
    2424:	e001      	b.n	242a <run_buffer_write_blocking_read_interrupt_test+0x6a>
    2426:	2b00      	cmp	r3, #0
    2428:	d108      	bne.n	243c <run_buffer_write_blocking_read_interrupt_test+0x7c>
    242a:	4b1f      	ldr	r3, [pc, #124]	; (24a8 <run_buffer_write_blocking_read_interrupt_test+0xe8>)
    242c:	2101      	movs	r1, #1
    242e:	9300      	str	r3, [sp, #0]
    2430:	2390      	movs	r3, #144	; 0x90
    2432:	9805      	ldr	r0, [sp, #20]
    2434:	4a1d      	ldr	r2, [pc, #116]	; (24ac <run_buffer_write_blocking_read_interrupt_test+0xec>)
    2436:	408b      	lsls	r3, r1
    2438:	4f1d      	ldr	r7, [pc, #116]	; (24b0 <run_buffer_write_blocking_read_interrupt_test+0xf0>)
    243a:	47b8      	blx	r7
    243c:	1c33      	adds	r3, r6, #0
    243e:	3331      	adds	r3, #49	; 0x31
    2440:	781a      	ldrb	r2, [r3, #0]
    2442:	2102      	movs	r1, #2
    2444:	438a      	bics	r2, r1
    2446:	701a      	strb	r2, [r3, #0]
    2448:	1c30      	adds	r0, r6, #0
    244a:	2101      	movs	r1, #1
    244c:	4b19      	ldr	r3, [pc, #100]	; (24b4 <run_buffer_write_blocking_read_interrupt_test+0xf4>)
    244e:	4798      	blx	r3
    2450:	4b19      	ldr	r3, [pc, #100]	; (24b8 <run_buffer_write_blocking_read_interrupt_test+0xf8>)
    2452:	1c28      	adds	r0, r5, #0
    2454:	1c21      	adds	r1, r4, #0
    2456:	4798      	blx	r3
    2458:	2300      	movs	r3, #0
    245a:	b200      	sxth	r0, r0
    245c:	7323      	strb	r3, [r4, #12]
    245e:	4298      	cmp	r0, r3
    2460:	d00a      	beq.n	2478 <run_buffer_write_blocking_read_interrupt_test+0xb8>
    2462:	4b16      	ldr	r3, [pc, #88]	; (24bc <run_buffer_write_blocking_read_interrupt_test+0xfc>)
    2464:	9402      	str	r4, [sp, #8]
    2466:	9300      	str	r3, [sp, #0]
    2468:	232e      	movs	r3, #46	; 0x2e
    246a:	9501      	str	r5, [sp, #4]
    246c:	9805      	ldr	r0, [sp, #20]
    246e:	2101      	movs	r1, #1
    2470:	4a0e      	ldr	r2, [pc, #56]	; (24ac <run_buffer_write_blocking_read_interrupt_test+0xec>)
    2472:	33ff      	adds	r3, #255	; 0xff
    2474:	4c0e      	ldr	r4, [pc, #56]	; (24b0 <run_buffer_write_blocking_read_interrupt_test+0xf0>)
    2476:	47a0      	blx	r4
    2478:	b00f      	add	sp, #60	; 0x3c
    247a:	bdf0      	pop	{r4, r5, r6, r7, pc}
    247c:	00003df6 	.word	0x00003df6
    2480:	00002865 	.word	0x00002865
    2484:	00002877 	.word	0x00002877
    2488:	20000150 	.word	0x20000150
    248c:	00001f41 	.word	0x00001f41
    2490:	00001245 	.word	0x00001245
    2494:	20000184 	.word	0x20000184
    2498:	00001419 	.word	0x00001419
    249c:	00000fd1 	.word	0x00000fd1
    24a0:	200001fc 	.word	0x200001fc
    24a4:	0000ffff 	.word	0x0000ffff
    24a8:	00003db7 	.word	0x00003db7
    24ac:	00003d44 	.word	0x00003d44
    24b0:	000001f5 	.word	0x000001f5
    24b4:	000012e9 	.word	0x000012e9
    24b8:	00002ae9 	.word	0x00002ae9
    24bc:	00003dcc 	.word	0x00003dcc

000024c0 <run_buffer_read_write_interrupt_test>:
    24c0:	b5f0      	push	{r4, r5, r6, r7, lr}
    24c2:	b08f      	sub	sp, #60	; 0x3c
    24c4:	ad06      	add	r5, sp, #24
    24c6:	2700      	movs	r7, #0
    24c8:	9005      	str	r0, [sp, #20]
    24ca:	4927      	ldr	r1, [pc, #156]	; (2568 <run_buffer_read_write_interrupt_test+0xa8>)
    24cc:	220d      	movs	r2, #13
    24ce:	4b27      	ldr	r3, [pc, #156]	; (256c <run_buffer_read_write_interrupt_test+0xac>)
    24d0:	1c28      	adds	r0, r5, #0
    24d2:	4798      	blx	r3
    24d4:	1c39      	adds	r1, r7, #0
    24d6:	2209      	movs	r2, #9
    24d8:	4b25      	ldr	r3, [pc, #148]	; (2570 <run_buffer_read_write_interrupt_test+0xb0>)
    24da:	a80b      	add	r0, sp, #44	; 0x2c
    24dc:	970a      	str	r7, [sp, #40]	; 0x28
    24de:	4798      	blx	r3
    24e0:	4e24      	ldr	r6, [pc, #144]	; (2574 <run_buffer_read_write_interrupt_test+0xb4>)
    24e2:	4925      	ldr	r1, [pc, #148]	; (2578 <run_buffer_read_write_interrupt_test+0xb8>)
    24e4:	1c30      	adds	r0, r6, #0
    24e6:	2201      	movs	r2, #1
    24e8:	4b24      	ldr	r3, [pc, #144]	; (257c <run_buffer_read_write_interrupt_test+0xbc>)
    24ea:	4798      	blx	r3
    24ec:	1c33      	adds	r3, r6, #0
    24ee:	3331      	adds	r3, #49	; 0x31
    24f0:	781a      	ldrb	r2, [r3, #0]
    24f2:	2102      	movs	r1, #2
    24f4:	430a      	orrs	r2, r1
    24f6:	701a      	strb	r2, [r3, #0]
    24f8:	4b21      	ldr	r3, [pc, #132]	; (2580 <run_buffer_read_write_interrupt_test+0xc0>)
    24fa:	1c29      	adds	r1, r5, #0
    24fc:	701f      	strb	r7, [r3, #0]
    24fe:	220d      	movs	r2, #13
    2500:	4b20      	ldr	r3, [pc, #128]	; (2584 <run_buffer_read_write_interrupt_test+0xc4>)
    2502:	ac0a      	add	r4, sp, #40	; 0x28
    2504:	4820      	ldr	r0, [pc, #128]	; (2588 <run_buffer_read_write_interrupt_test+0xc8>)
    2506:	4798      	blx	r3
    2508:	220d      	movs	r2, #13
    250a:	4b20      	ldr	r3, [pc, #128]	; (258c <run_buffer_read_write_interrupt_test+0xcc>)
    250c:	1c30      	adds	r0, r6, #0
    250e:	1c21      	adds	r1, r4, #0
    2510:	4798      	blx	r3
    2512:	4b1f      	ldr	r3, [pc, #124]	; (2590 <run_buffer_read_write_interrupt_test+0xd0>)
    2514:	4a1a      	ldr	r2, [pc, #104]	; (2580 <run_buffer_read_write_interrupt_test+0xc0>)
    2516:	7811      	ldrb	r1, [r2, #0]
    2518:	3b01      	subs	r3, #1
    251a:	b29b      	uxth	r3, r3
    251c:	2900      	cmp	r1, #0
    251e:	d102      	bne.n	2526 <run_buffer_read_write_interrupt_test+0x66>
    2520:	2b00      	cmp	r3, #0
    2522:	d1f8      	bne.n	2516 <run_buffer_read_write_interrupt_test+0x56>
    2524:	e001      	b.n	252a <run_buffer_read_write_interrupt_test+0x6a>
    2526:	2b00      	cmp	r3, #0
    2528:	d108      	bne.n	253c <run_buffer_read_write_interrupt_test+0x7c>
    252a:	4b1a      	ldr	r3, [pc, #104]	; (2594 <run_buffer_read_write_interrupt_test+0xd4>)
    252c:	2101      	movs	r1, #1
    252e:	9300      	str	r3, [sp, #0]
    2530:	23ab      	movs	r3, #171	; 0xab
    2532:	9805      	ldr	r0, [sp, #20]
    2534:	4a18      	ldr	r2, [pc, #96]	; (2598 <run_buffer_read_write_interrupt_test+0xd8>)
    2536:	408b      	lsls	r3, r1
    2538:	4e18      	ldr	r6, [pc, #96]	; (259c <run_buffer_read_write_interrupt_test+0xdc>)
    253a:	47b0      	blx	r6
    253c:	4b18      	ldr	r3, [pc, #96]	; (25a0 <run_buffer_read_write_interrupt_test+0xe0>)
    253e:	1c28      	adds	r0, r5, #0
    2540:	1c21      	adds	r1, r4, #0
    2542:	4798      	blx	r3
    2544:	2300      	movs	r3, #0
    2546:	b200      	sxth	r0, r0
    2548:	7323      	strb	r3, [r4, #12]
    254a:	4298      	cmp	r0, r3
    254c:	d00a      	beq.n	2564 <run_buffer_read_write_interrupt_test+0xa4>
    254e:	4b15      	ldr	r3, [pc, #84]	; (25a4 <run_buffer_read_write_interrupt_test+0xe4>)
    2550:	2101      	movs	r1, #1
    2552:	9300      	str	r3, [sp, #0]
    2554:	23b0      	movs	r3, #176	; 0xb0
    2556:	9402      	str	r4, [sp, #8]
    2558:	9501      	str	r5, [sp, #4]
    255a:	9805      	ldr	r0, [sp, #20]
    255c:	4a0e      	ldr	r2, [pc, #56]	; (2598 <run_buffer_read_write_interrupt_test+0xd8>)
    255e:	408b      	lsls	r3, r1
    2560:	4c0e      	ldr	r4, [pc, #56]	; (259c <run_buffer_read_write_interrupt_test+0xdc>)
    2562:	47a0      	blx	r4
    2564:	b00f      	add	sp, #60	; 0x3c
    2566:	bdf0      	pop	{r4, r5, r6, r7, pc}
    2568:	00003df6 	.word	0x00003df6
    256c:	00002865 	.word	0x00002865
    2570:	00002877 	.word	0x00002877
    2574:	20000150 	.word	0x20000150
    2578:	00001f41 	.word	0x00001f41
    257c:	00001245 	.word	0x00001245
    2580:	20000184 	.word	0x20000184
    2584:	00001359 	.word	0x00001359
    2588:	200001fc 	.word	0x200001fc
    258c:	00001419 	.word	0x00001419
    2590:	0000ffff 	.word	0x0000ffff
    2594:	00003e03 	.word	0x00003e03
    2598:	00003d44 	.word	0x00003d44
    259c:	000001f5 	.word	0x000001f5
    25a0:	00002ae9 	.word	0x00002ae9
    25a4:	00003dcc 	.word	0x00003dcc

000025a8 <main>:
    25a8:	b5f0      	push	{r4, r5, r6, r7, lr}
    25aa:	b095      	sub	sp, #84	; 0x54
    25ac:	ac04      	add	r4, sp, #16
    25ae:	4b38      	ldr	r3, [pc, #224]	; (2690 <main+0xe8>)
    25b0:	4798      	blx	r3
    25b2:	1c20      	adds	r0, r4, #0
    25b4:	4d37      	ldr	r5, [pc, #220]	; (2694 <main+0xec>)
    25b6:	47a8      	blx	r5
    25b8:	4b37      	ldr	r3, [pc, #220]	; (2698 <main+0xf0>)
    25ba:	4e38      	ldr	r6, [pc, #224]	; (269c <main+0xf4>)
    25bc:	6323      	str	r3, [r4, #48]	; 0x30
    25be:	4b38      	ldr	r3, [pc, #224]	; (26a0 <main+0xf8>)
    25c0:	4a38      	ldr	r2, [pc, #224]	; (26a4 <main+0xfc>)
    25c2:	6363      	str	r3, [r4, #52]	; 0x34
    25c4:	2396      	movs	r3, #150	; 0x96
    25c6:	021b      	lsls	r3, r3, #8
    25c8:	6223      	str	r3, [r4, #32]
    25ca:	4b37      	ldr	r3, [pc, #220]	; (26a8 <main+0x100>)
    25cc:	2080      	movs	r0, #128	; 0x80
    25ce:	601e      	str	r6, [r3, #0]
    25d0:	4b36      	ldr	r3, [pc, #216]	; (26ac <main+0x104>)
    25d2:	0340      	lsls	r0, r0, #13
    25d4:	601a      	str	r2, [r3, #0]
    25d6:	4a36      	ldr	r2, [pc, #216]	; (26b0 <main+0x108>)
    25d8:	4b36      	ldr	r3, [pc, #216]	; (26b4 <main+0x10c>)
    25da:	2501      	movs	r5, #1
    25dc:	426d      	negs	r5, r5
    25de:	601a      	str	r2, [r3, #0]
    25e0:	60e0      	str	r0, [r4, #12]
    25e2:	1c22      	adds	r2, r4, #0
    25e4:	1c30      	adds	r0, r6, #0
    25e6:	4934      	ldr	r1, [pc, #208]	; (26b8 <main+0x110>)
    25e8:	4b34      	ldr	r3, [pc, #208]	; (26bc <main+0x114>)
    25ea:	63a5      	str	r5, [r4, #56]	; 0x38
    25ec:	63e5      	str	r5, [r4, #60]	; 0x3c
    25ee:	4798      	blx	r3
    25f0:	4f33      	ldr	r7, [pc, #204]	; (26c0 <main+0x118>)
    25f2:	2100      	movs	r1, #0
    25f4:	683b      	ldr	r3, [r7, #0]
    25f6:	6898      	ldr	r0, [r3, #8]
    25f8:	4b32      	ldr	r3, [pc, #200]	; (26c4 <main+0x11c>)
    25fa:	4798      	blx	r3
    25fc:	683b      	ldr	r3, [r7, #0]
    25fe:	2100      	movs	r1, #0
    2600:	6858      	ldr	r0, [r3, #4]
    2602:	4b30      	ldr	r3, [pc, #192]	; (26c4 <main+0x11c>)
    2604:	4798      	blx	r3
    2606:	1c30      	adds	r0, r6, #0
    2608:	4f2f      	ldr	r7, [pc, #188]	; (26c8 <main+0x120>)
    260a:	47b8      	blx	r7
    260c:	4e2f      	ldr	r6, [pc, #188]	; (26cc <main+0x124>)
    260e:	4921      	ldr	r1, [pc, #132]	; (2694 <main+0xec>)
    2610:	1c30      	adds	r0, r6, #0
    2612:	4788      	blx	r1
    2614:	2380      	movs	r3, #128	; 0x80
    2616:	035b      	lsls	r3, r3, #13
    2618:	60f3      	str	r3, [r6, #12]
    261a:	63b5      	str	r5, [r6, #56]	; 0x38
    261c:	63f5      	str	r5, [r6, #60]	; 0x3c
    261e:	4b2c      	ldr	r3, [pc, #176]	; (26d0 <main+0x128>)
    2620:	25e1      	movs	r5, #225	; 0xe1
    2622:	026d      	lsls	r5, r5, #9
    2624:	6333      	str	r3, [r6, #48]	; 0x30
    2626:	6235      	str	r5, [r6, #32]
    2628:	4b2a      	ldr	r3, [pc, #168]	; (26d4 <main+0x12c>)
    262a:	4d2b      	ldr	r5, [pc, #172]	; (26d8 <main+0x130>)
    262c:	1c32      	adds	r2, r6, #0
    262e:	6373      	str	r3, [r6, #52]	; 0x34
    2630:	492a      	ldr	r1, [pc, #168]	; (26dc <main+0x134>)
    2632:	4b22      	ldr	r3, [pc, #136]	; (26bc <main+0x114>)
    2634:	1c28      	adds	r0, r5, #0
    2636:	4798      	blx	r3
    2638:	1c28      	adds	r0, r5, #0
    263a:	47b8      	blx	r7
    263c:	4d28      	ldr	r5, [pc, #160]	; (26e0 <main+0x138>)
    263e:	4915      	ldr	r1, [pc, #84]	; (2694 <main+0xec>)
    2640:	1c28      	adds	r0, r5, #0
    2642:	4788      	blx	r1
    2644:	2380      	movs	r3, #128	; 0x80
    2646:	035b      	lsls	r3, r3, #13
    2648:	60eb      	str	r3, [r5, #12]
    264a:	4b26      	ldr	r3, [pc, #152]	; (26e4 <main+0x13c>)
    264c:	4e26      	ldr	r6, [pc, #152]	; (26e8 <main+0x140>)
    264e:	632b      	str	r3, [r5, #48]	; 0x30
    2650:	4b26      	ldr	r3, [pc, #152]	; (26ec <main+0x144>)
    2652:	20e1      	movs	r0, #225	; 0xe1
    2654:	636b      	str	r3, [r5, #52]	; 0x34
    2656:	4b26      	ldr	r3, [pc, #152]	; (26f0 <main+0x148>)
    2658:	0240      	lsls	r0, r0, #9
    265a:	63ab      	str	r3, [r5, #56]	; 0x38
    265c:	4b25      	ldr	r3, [pc, #148]	; (26f4 <main+0x14c>)
    265e:	1c2a      	adds	r2, r5, #0
    2660:	63eb      	str	r3, [r5, #60]	; 0x3c
    2662:	6228      	str	r0, [r5, #32]
    2664:	4924      	ldr	r1, [pc, #144]	; (26f8 <main+0x150>)
    2666:	4d15      	ldr	r5, [pc, #84]	; (26bc <main+0x114>)
    2668:	1c30      	adds	r0, r6, #0
    266a:	47a8      	blx	r5
    266c:	1c30      	adds	r0, r6, #0
    266e:	47b8      	blx	r7
    2670:	4b22      	ldr	r3, [pc, #136]	; (26fc <main+0x154>)
    2672:	1c22      	adds	r2, r4, #0
    2674:	cb23      	ldmia	r3!, {r0, r1, r5}
    2676:	c223      	stmia	r2!, {r0, r1, r5}
    2678:	681b      	ldr	r3, [r3, #0]
    267a:	a801      	add	r0, sp, #4
    267c:	6013      	str	r3, [r2, #0]
    267e:	2304      	movs	r3, #4
    2680:	9301      	str	r3, [sp, #4]
    2682:	4b1f      	ldr	r3, [pc, #124]	; (2700 <main+0x158>)
    2684:	9402      	str	r4, [sp, #8]
    2686:	9303      	str	r3, [sp, #12]
    2688:	4b1e      	ldr	r3, [pc, #120]	; (2704 <main+0x15c>)
    268a:	4798      	blx	r3
    268c:	e7fe      	b.n	268c <main+0xe4>
    268e:	46c0      	nop			; (mov r8, r8)
    2690:	00001dc1 	.word	0x00001dc1
    2694:	000020b5 	.word	0x000020b5
    2698:	00160002 	.word	0x00160002
    269c:	20000188 	.word	0x20000188
    26a0:	00170002 	.word	0x00170002
    26a4:	00001f4d 	.word	0x00001f4d
    26a8:	2000014c 	.word	0x2000014c
    26ac:	20000148 	.word	0x20000148
    26b0:	00001fc1 	.word	0x00001fc1
    26b4:	20000144 	.word	0x20000144
    26b8:	42001400 	.word	0x42001400
    26bc:	00000a35 	.word	0x00000a35
    26c0:	20000064 	.word	0x20000064
    26c4:	00002995 	.word	0x00002995
    26c8:	00002225 	.word	0x00002225
    26cc:	20000230 	.word	0x20000230
    26d0:	00280003 	.word	0x00280003
    26d4:	00290003 	.word	0x00290003
    26d8:	20000150 	.word	0x20000150
    26dc:	42001800 	.word	0x42001800
    26e0:	200001bc 	.word	0x200001bc
    26e4:	00040003 	.word	0x00040003
    26e8:	200001fc 	.word	0x200001fc
    26ec:	00050003 	.word	0x00050003
    26f0:	00060003 	.word	0x00060003
    26f4:	00070003 	.word	0x00070003
    26f8:	42000800 	.word	0x42000800
    26fc:	00003cf4 	.word	0x00003cf4
    2700:	00003e1b 	.word	0x00003e1b
    2704:	000002c9 	.word	0x000002c9

00002708 <__gnu_thumb1_case_uqi>:
    2708:	b402      	push	{r1}
    270a:	4671      	mov	r1, lr
    270c:	0849      	lsrs	r1, r1, #1
    270e:	0049      	lsls	r1, r1, #1
    2710:	5c09      	ldrb	r1, [r1, r0]
    2712:	0049      	lsls	r1, r1, #1
    2714:	448e      	add	lr, r1
    2716:	bc02      	pop	{r1}
    2718:	4770      	bx	lr
    271a:	46c0      	nop			; (mov r8, r8)

0000271c <__aeabi_uidiv>:
    271c:	2900      	cmp	r1, #0
    271e:	d034      	beq.n	278a <.udivsi3_skip_div0_test+0x6a>

00002720 <.udivsi3_skip_div0_test>:
    2720:	2301      	movs	r3, #1
    2722:	2200      	movs	r2, #0
    2724:	b410      	push	{r4}
    2726:	4288      	cmp	r0, r1
    2728:	d32c      	bcc.n	2784 <.udivsi3_skip_div0_test+0x64>
    272a:	2401      	movs	r4, #1
    272c:	0724      	lsls	r4, r4, #28
    272e:	42a1      	cmp	r1, r4
    2730:	d204      	bcs.n	273c <.udivsi3_skip_div0_test+0x1c>
    2732:	4281      	cmp	r1, r0
    2734:	d202      	bcs.n	273c <.udivsi3_skip_div0_test+0x1c>
    2736:	0109      	lsls	r1, r1, #4
    2738:	011b      	lsls	r3, r3, #4
    273a:	e7f8      	b.n	272e <.udivsi3_skip_div0_test+0xe>
    273c:	00e4      	lsls	r4, r4, #3
    273e:	42a1      	cmp	r1, r4
    2740:	d204      	bcs.n	274c <.udivsi3_skip_div0_test+0x2c>
    2742:	4281      	cmp	r1, r0
    2744:	d202      	bcs.n	274c <.udivsi3_skip_div0_test+0x2c>
    2746:	0049      	lsls	r1, r1, #1
    2748:	005b      	lsls	r3, r3, #1
    274a:	e7f8      	b.n	273e <.udivsi3_skip_div0_test+0x1e>
    274c:	4288      	cmp	r0, r1
    274e:	d301      	bcc.n	2754 <.udivsi3_skip_div0_test+0x34>
    2750:	1a40      	subs	r0, r0, r1
    2752:	431a      	orrs	r2, r3
    2754:	084c      	lsrs	r4, r1, #1
    2756:	42a0      	cmp	r0, r4
    2758:	d302      	bcc.n	2760 <.udivsi3_skip_div0_test+0x40>
    275a:	1b00      	subs	r0, r0, r4
    275c:	085c      	lsrs	r4, r3, #1
    275e:	4322      	orrs	r2, r4
    2760:	088c      	lsrs	r4, r1, #2
    2762:	42a0      	cmp	r0, r4
    2764:	d302      	bcc.n	276c <.udivsi3_skip_div0_test+0x4c>
    2766:	1b00      	subs	r0, r0, r4
    2768:	089c      	lsrs	r4, r3, #2
    276a:	4322      	orrs	r2, r4
    276c:	08cc      	lsrs	r4, r1, #3
    276e:	42a0      	cmp	r0, r4
    2770:	d302      	bcc.n	2778 <.udivsi3_skip_div0_test+0x58>
    2772:	1b00      	subs	r0, r0, r4
    2774:	08dc      	lsrs	r4, r3, #3
    2776:	4322      	orrs	r2, r4
    2778:	2800      	cmp	r0, #0
    277a:	d003      	beq.n	2784 <.udivsi3_skip_div0_test+0x64>
    277c:	091b      	lsrs	r3, r3, #4
    277e:	d001      	beq.n	2784 <.udivsi3_skip_div0_test+0x64>
    2780:	0909      	lsrs	r1, r1, #4
    2782:	e7e3      	b.n	274c <.udivsi3_skip_div0_test+0x2c>
    2784:	1c10      	adds	r0, r2, #0
    2786:	bc10      	pop	{r4}
    2788:	4770      	bx	lr
    278a:	2800      	cmp	r0, #0
    278c:	d001      	beq.n	2792 <.udivsi3_skip_div0_test+0x72>
    278e:	2000      	movs	r0, #0
    2790:	43c0      	mvns	r0, r0
    2792:	b407      	push	{r0, r1, r2}
    2794:	4802      	ldr	r0, [pc, #8]	; (27a0 <.udivsi3_skip_div0_test+0x80>)
    2796:	a102      	add	r1, pc, #8	; (adr r1, 27a0 <.udivsi3_skip_div0_test+0x80>)
    2798:	1840      	adds	r0, r0, r1
    279a:	9002      	str	r0, [sp, #8]
    279c:	bd03      	pop	{r0, r1, pc}
    279e:	46c0      	nop			; (mov r8, r8)
    27a0:	00000019 	.word	0x00000019

000027a4 <__aeabi_uidivmod>:
    27a4:	2900      	cmp	r1, #0
    27a6:	d0f0      	beq.n	278a <.udivsi3_skip_div0_test+0x6a>
    27a8:	b503      	push	{r0, r1, lr}
    27aa:	f7ff ffb9 	bl	2720 <.udivsi3_skip_div0_test>
    27ae:	bc0e      	pop	{r1, r2, r3}
    27b0:	4342      	muls	r2, r0
    27b2:	1a89      	subs	r1, r1, r2
    27b4:	4718      	bx	r3
    27b6:	46c0      	nop			; (mov r8, r8)

000027b8 <__aeabi_idiv0>:
    27b8:	4770      	bx	lr
    27ba:	46c0      	nop			; (mov r8, r8)

000027bc <__aeabi_llsl>:
    27bc:	4091      	lsls	r1, r2
    27be:	1c03      	adds	r3, r0, #0
    27c0:	4090      	lsls	r0, r2
    27c2:	469c      	mov	ip, r3
    27c4:	3a20      	subs	r2, #32
    27c6:	4093      	lsls	r3, r2
    27c8:	4319      	orrs	r1, r3
    27ca:	4252      	negs	r2, r2
    27cc:	4663      	mov	r3, ip
    27ce:	40d3      	lsrs	r3, r2
    27d0:	4319      	orrs	r1, r3
    27d2:	4770      	bx	lr

000027d4 <__aeabi_lmul>:
    27d4:	469c      	mov	ip, r3
    27d6:	0403      	lsls	r3, r0, #16
    27d8:	b5f0      	push	{r4, r5, r6, r7, lr}
    27da:	0c1b      	lsrs	r3, r3, #16
    27dc:	0417      	lsls	r7, r2, #16
    27de:	0c3f      	lsrs	r7, r7, #16
    27e0:	0c15      	lsrs	r5, r2, #16
    27e2:	1c1e      	adds	r6, r3, #0
    27e4:	1c04      	adds	r4, r0, #0
    27e6:	0c00      	lsrs	r0, r0, #16
    27e8:	437e      	muls	r6, r7
    27ea:	436b      	muls	r3, r5
    27ec:	4347      	muls	r7, r0
    27ee:	4345      	muls	r5, r0
    27f0:	18fb      	adds	r3, r7, r3
    27f2:	0c30      	lsrs	r0, r6, #16
    27f4:	1818      	adds	r0, r3, r0
    27f6:	4287      	cmp	r7, r0
    27f8:	d902      	bls.n	2800 <__aeabi_lmul+0x2c>
    27fa:	2380      	movs	r3, #128	; 0x80
    27fc:	025b      	lsls	r3, r3, #9
    27fe:	18ed      	adds	r5, r5, r3
    2800:	0c03      	lsrs	r3, r0, #16
    2802:	18ed      	adds	r5, r5, r3
    2804:	4663      	mov	r3, ip
    2806:	435c      	muls	r4, r3
    2808:	434a      	muls	r2, r1
    280a:	0436      	lsls	r6, r6, #16
    280c:	0c36      	lsrs	r6, r6, #16
    280e:	18a1      	adds	r1, r4, r2
    2810:	0400      	lsls	r0, r0, #16
    2812:	1980      	adds	r0, r0, r6
    2814:	1949      	adds	r1, r1, r5
    2816:	bdf0      	pop	{r4, r5, r6, r7, pc}

00002818 <__libc_init_array>:
    2818:	b570      	push	{r4, r5, r6, lr}
    281a:	4b0e      	ldr	r3, [pc, #56]	; (2854 <__libc_init_array+0x3c>)
    281c:	4d0e      	ldr	r5, [pc, #56]	; (2858 <__libc_init_array+0x40>)
    281e:	2400      	movs	r4, #0
    2820:	1aed      	subs	r5, r5, r3
    2822:	10ad      	asrs	r5, r5, #2
    2824:	1c1e      	adds	r6, r3, #0
    2826:	42ac      	cmp	r4, r5
    2828:	d004      	beq.n	2834 <__libc_init_array+0x1c>
    282a:	00a3      	lsls	r3, r4, #2
    282c:	58f3      	ldr	r3, [r6, r3]
    282e:	4798      	blx	r3
    2830:	3401      	adds	r4, #1
    2832:	e7f8      	b.n	2826 <__libc_init_array+0xe>
    2834:	f001 fb92 	bl	3f5c <_init>
    2838:	4b08      	ldr	r3, [pc, #32]	; (285c <__libc_init_array+0x44>)
    283a:	4d09      	ldr	r5, [pc, #36]	; (2860 <__libc_init_array+0x48>)
    283c:	2400      	movs	r4, #0
    283e:	1aed      	subs	r5, r5, r3
    2840:	10ad      	asrs	r5, r5, #2
    2842:	1c1e      	adds	r6, r3, #0
    2844:	42ac      	cmp	r4, r5
    2846:	d004      	beq.n	2852 <__libc_init_array+0x3a>
    2848:	00a3      	lsls	r3, r4, #2
    284a:	58f3      	ldr	r3, [r6, r3]
    284c:	4798      	blx	r3
    284e:	3401      	adds	r4, #1
    2850:	e7f8      	b.n	2844 <__libc_init_array+0x2c>
    2852:	bd70      	pop	{r4, r5, r6, pc}
    2854:	00003f68 	.word	0x00003f68
    2858:	00003f68 	.word	0x00003f68
    285c:	00003f68 	.word	0x00003f68
    2860:	00003f6c 	.word	0x00003f6c

00002864 <memcpy>:
    2864:	b510      	push	{r4, lr}
    2866:	2300      	movs	r3, #0
    2868:	4293      	cmp	r3, r2
    286a:	d003      	beq.n	2874 <memcpy+0x10>
    286c:	5ccc      	ldrb	r4, [r1, r3]
    286e:	54c4      	strb	r4, [r0, r3]
    2870:	3301      	adds	r3, #1
    2872:	e7f9      	b.n	2868 <memcpy+0x4>
    2874:	bd10      	pop	{r4, pc}

00002876 <memset>:
    2876:	1c03      	adds	r3, r0, #0
    2878:	1882      	adds	r2, r0, r2
    287a:	4293      	cmp	r3, r2
    287c:	d002      	beq.n	2884 <memset+0xe>
    287e:	7019      	strb	r1, [r3, #0]
    2880:	3301      	adds	r3, #1
    2882:	e7fa      	b.n	287a <memset+0x4>
    2884:	4770      	bx	lr
	...

00002888 <iprintf>:
    2888:	b40f      	push	{r0, r1, r2, r3}
    288a:	4b0b      	ldr	r3, [pc, #44]	; (28b8 <iprintf+0x30>)
    288c:	b513      	push	{r0, r1, r4, lr}
    288e:	681c      	ldr	r4, [r3, #0]
    2890:	2c00      	cmp	r4, #0
    2892:	d005      	beq.n	28a0 <iprintf+0x18>
    2894:	69a3      	ldr	r3, [r4, #24]
    2896:	2b00      	cmp	r3, #0
    2898:	d102      	bne.n	28a0 <iprintf+0x18>
    289a:	1c20      	adds	r0, r4, #0
    289c:	f000 fdca 	bl	3434 <__sinit>
    28a0:	ab05      	add	r3, sp, #20
    28a2:	68a1      	ldr	r1, [r4, #8]
    28a4:	1c20      	adds	r0, r4, #0
    28a6:	9a04      	ldr	r2, [sp, #16]
    28a8:	9301      	str	r3, [sp, #4]
    28aa:	f000 f94f 	bl	2b4c <_vfiprintf_r>
    28ae:	bc16      	pop	{r1, r2, r4}
    28b0:	bc08      	pop	{r3}
    28b2:	b004      	add	sp, #16
    28b4:	4718      	bx	r3
    28b6:	46c0      	nop			; (mov r8, r8)
    28b8:	20000064 	.word	0x20000064

000028bc <_puts_r>:
    28bc:	b570      	push	{r4, r5, r6, lr}
    28be:	1c05      	adds	r5, r0, #0
    28c0:	1c0e      	adds	r6, r1, #0
    28c2:	2800      	cmp	r0, #0
    28c4:	d004      	beq.n	28d0 <_puts_r+0x14>
    28c6:	6982      	ldr	r2, [r0, #24]
    28c8:	2a00      	cmp	r2, #0
    28ca:	d101      	bne.n	28d0 <_puts_r+0x14>
    28cc:	f000 fdb2 	bl	3434 <__sinit>
    28d0:	68ac      	ldr	r4, [r5, #8]
    28d2:	89a3      	ldrh	r3, [r4, #12]
    28d4:	071a      	lsls	r2, r3, #28
    28d6:	d502      	bpl.n	28de <_puts_r+0x22>
    28d8:	6923      	ldr	r3, [r4, #16]
    28da:	2b00      	cmp	r3, #0
    28dc:	d119      	bne.n	2912 <_puts_r+0x56>
    28de:	1c28      	adds	r0, r5, #0
    28e0:	1c21      	adds	r1, r4, #0
    28e2:	f000 fc2b 	bl	313c <__swsetup_r>
    28e6:	2800      	cmp	r0, #0
    28e8:	d013      	beq.n	2912 <_puts_r+0x56>
    28ea:	2001      	movs	r0, #1
    28ec:	4240      	negs	r0, r0
    28ee:	e045      	b.n	297c <_puts_r+0xc0>
    28f0:	7831      	ldrb	r1, [r6, #0]
    28f2:	2b00      	cmp	r3, #0
    28f4:	da1b      	bge.n	292e <_puts_r+0x72>
    28f6:	69a2      	ldr	r2, [r4, #24]
    28f8:	4293      	cmp	r3, r2
    28fa:	da11      	bge.n	2920 <_puts_r+0x64>
    28fc:	1c28      	adds	r0, r5, #0
    28fe:	1c22      	adds	r2, r4, #0
    2900:	f000 fbc4 	bl	308c <__swbuf_r>
    2904:	3001      	adds	r0, #1
    2906:	4243      	negs	r3, r0
    2908:	4158      	adcs	r0, r3
    290a:	b2c0      	uxtb	r0, r0
    290c:	2800      	cmp	r0, #0
    290e:	d1ec      	bne.n	28ea <_puts_r+0x2e>
    2910:	3601      	adds	r6, #1
    2912:	68a3      	ldr	r3, [r4, #8]
    2914:	7832      	ldrb	r2, [r6, #0]
    2916:	3b01      	subs	r3, #1
    2918:	60a3      	str	r3, [r4, #8]
    291a:	2a00      	cmp	r2, #0
    291c:	d1e8      	bne.n	28f0 <_puts_r+0x34>
    291e:	e00c      	b.n	293a <_puts_r+0x7e>
    2920:	6823      	ldr	r3, [r4, #0]
    2922:	7019      	strb	r1, [r3, #0]
    2924:	6823      	ldr	r3, [r4, #0]
    2926:	7819      	ldrb	r1, [r3, #0]
    2928:	290a      	cmp	r1, #10
    292a:	d103      	bne.n	2934 <_puts_r+0x78>
    292c:	e7e6      	b.n	28fc <_puts_r+0x40>
    292e:	6822      	ldr	r2, [r4, #0]
    2930:	7011      	strb	r1, [r2, #0]
    2932:	6823      	ldr	r3, [r4, #0]
    2934:	3301      	adds	r3, #1
    2936:	6023      	str	r3, [r4, #0]
    2938:	e7ea      	b.n	2910 <_puts_r+0x54>
    293a:	2b00      	cmp	r3, #0
    293c:	da17      	bge.n	296e <_puts_r+0xb2>
    293e:	69a2      	ldr	r2, [r4, #24]
    2940:	4293      	cmp	r3, r2
    2942:	db08      	blt.n	2956 <_puts_r+0x9a>
    2944:	6822      	ldr	r2, [r4, #0]
    2946:	230a      	movs	r3, #10
    2948:	7013      	strb	r3, [r2, #0]
    294a:	6823      	ldr	r3, [r4, #0]
    294c:	7819      	ldrb	r1, [r3, #0]
    294e:	290a      	cmp	r1, #10
    2950:	d111      	bne.n	2976 <_puts_r+0xba>
    2952:	1c28      	adds	r0, r5, #0
    2954:	e001      	b.n	295a <_puts_r+0x9e>
    2956:	1c28      	adds	r0, r5, #0
    2958:	210a      	movs	r1, #10
    295a:	1c22      	adds	r2, r4, #0
    295c:	f000 fb96 	bl	308c <__swbuf_r>
    2960:	3001      	adds	r0, #1
    2962:	4243      	negs	r3, r0
    2964:	4158      	adcs	r0, r3
    2966:	b2c0      	uxtb	r0, r0
    2968:	2800      	cmp	r0, #0
    296a:	d006      	beq.n	297a <_puts_r+0xbe>
    296c:	e7bd      	b.n	28ea <_puts_r+0x2e>
    296e:	6822      	ldr	r2, [r4, #0]
    2970:	230a      	movs	r3, #10
    2972:	7013      	strb	r3, [r2, #0]
    2974:	6823      	ldr	r3, [r4, #0]
    2976:	3301      	adds	r3, #1
    2978:	6023      	str	r3, [r4, #0]
    297a:	200a      	movs	r0, #10
    297c:	bd70      	pop	{r4, r5, r6, pc}
	...

00002980 <puts>:
    2980:	b508      	push	{r3, lr}
    2982:	4b03      	ldr	r3, [pc, #12]	; (2990 <puts+0x10>)
    2984:	1c01      	adds	r1, r0, #0
    2986:	6818      	ldr	r0, [r3, #0]
    2988:	f7ff ff98 	bl	28bc <_puts_r>
    298c:	bd08      	pop	{r3, pc}
    298e:	46c0      	nop			; (mov r8, r8)
    2990:	20000064 	.word	0x20000064

00002994 <setbuf>:
    2994:	b508      	push	{r3, lr}
    2996:	424a      	negs	r2, r1
    2998:	414a      	adcs	r2, r1
    299a:	2380      	movs	r3, #128	; 0x80
    299c:	0052      	lsls	r2, r2, #1
    299e:	00db      	lsls	r3, r3, #3
    29a0:	f000 f81c 	bl	29dc <setvbuf>
    29a4:	bd08      	pop	{r3, pc}

000029a6 <setjmp>:
    29a6:	c0f0      	stmia	r0!, {r4, r5, r6, r7}
    29a8:	4641      	mov	r1, r8
    29aa:	464a      	mov	r2, r9
    29ac:	4653      	mov	r3, sl
    29ae:	465c      	mov	r4, fp
    29b0:	466d      	mov	r5, sp
    29b2:	4676      	mov	r6, lr
    29b4:	c07e      	stmia	r0!, {r1, r2, r3, r4, r5, r6}
    29b6:	3828      	subs	r0, #40	; 0x28
    29b8:	c8f0      	ldmia	r0!, {r4, r5, r6, r7}
    29ba:	2000      	movs	r0, #0
    29bc:	4770      	bx	lr

000029be <longjmp>:
    29be:	3010      	adds	r0, #16
    29c0:	c87c      	ldmia	r0!, {r2, r3, r4, r5, r6}
    29c2:	4690      	mov	r8, r2
    29c4:	4699      	mov	r9, r3
    29c6:	46a2      	mov	sl, r4
    29c8:	46ab      	mov	fp, r5
    29ca:	46b5      	mov	sp, r6
    29cc:	c808      	ldmia	r0!, {r3}
    29ce:	3828      	subs	r0, #40	; 0x28
    29d0:	c8f0      	ldmia	r0!, {r4, r5, r6, r7}
    29d2:	1c08      	adds	r0, r1, #0
    29d4:	d100      	bne.n	29d8 <longjmp+0x1a>
    29d6:	2001      	movs	r0, #1
    29d8:	4718      	bx	r3
	...

000029dc <setvbuf>:
    29dc:	b5f7      	push	{r0, r1, r2, r4, r5, r6, r7, lr}
    29de:	1c1e      	adds	r6, r3, #0
    29e0:	4b3c      	ldr	r3, [pc, #240]	; (2ad4 <setvbuf+0xf8>)
    29e2:	1c04      	adds	r4, r0, #0
    29e4:	681d      	ldr	r5, [r3, #0]
    29e6:	1c0f      	adds	r7, r1, #0
    29e8:	9201      	str	r2, [sp, #4]
    29ea:	2d00      	cmp	r5, #0
    29ec:	d005      	beq.n	29fa <setvbuf+0x1e>
    29ee:	69aa      	ldr	r2, [r5, #24]
    29f0:	2a00      	cmp	r2, #0
    29f2:	d102      	bne.n	29fa <setvbuf+0x1e>
    29f4:	1c28      	adds	r0, r5, #0
    29f6:	f000 fd1d 	bl	3434 <__sinit>
    29fa:	4b37      	ldr	r3, [pc, #220]	; (2ad8 <setvbuf+0xfc>)
    29fc:	429c      	cmp	r4, r3
    29fe:	d101      	bne.n	2a04 <setvbuf+0x28>
    2a00:	686c      	ldr	r4, [r5, #4]
    2a02:	e008      	b.n	2a16 <setvbuf+0x3a>
    2a04:	4b35      	ldr	r3, [pc, #212]	; (2adc <setvbuf+0x100>)
    2a06:	429c      	cmp	r4, r3
    2a08:	d101      	bne.n	2a0e <setvbuf+0x32>
    2a0a:	68ac      	ldr	r4, [r5, #8]
    2a0c:	e003      	b.n	2a16 <setvbuf+0x3a>
    2a0e:	4b34      	ldr	r3, [pc, #208]	; (2ae0 <setvbuf+0x104>)
    2a10:	429c      	cmp	r4, r3
    2a12:	d100      	bne.n	2a16 <setvbuf+0x3a>
    2a14:	68ec      	ldr	r4, [r5, #12]
    2a16:	9b01      	ldr	r3, [sp, #4]
    2a18:	2b02      	cmp	r3, #2
    2a1a:	d857      	bhi.n	2acc <setvbuf+0xf0>
    2a1c:	2e00      	cmp	r6, #0
    2a1e:	db55      	blt.n	2acc <setvbuf+0xf0>
    2a20:	1c28      	adds	r0, r5, #0
    2a22:	1c21      	adds	r1, r4, #0
    2a24:	f000 fc86 	bl	3334 <_fflush_r>
    2a28:	2300      	movs	r3, #0
    2a2a:	6063      	str	r3, [r4, #4]
    2a2c:	61a3      	str	r3, [r4, #24]
    2a2e:	89a3      	ldrh	r3, [r4, #12]
    2a30:	061a      	lsls	r2, r3, #24
    2a32:	d503      	bpl.n	2a3c <setvbuf+0x60>
    2a34:	1c28      	adds	r0, r5, #0
    2a36:	6921      	ldr	r1, [r4, #16]
    2a38:	f000 fdd2 	bl	35e0 <_free_r>
    2a3c:	89a3      	ldrh	r3, [r4, #12]
    2a3e:	2283      	movs	r2, #131	; 0x83
    2a40:	4393      	bics	r3, r2
    2a42:	81a3      	strh	r3, [r4, #12]
    2a44:	9b01      	ldr	r3, [sp, #4]
    2a46:	2b02      	cmp	r3, #2
    2a48:	d013      	beq.n	2a72 <setvbuf+0x96>
    2a4a:	2f00      	cmp	r7, #0
    2a4c:	d125      	bne.n	2a9a <setvbuf+0xbe>
    2a4e:	2e00      	cmp	r6, #0
    2a50:	d101      	bne.n	2a56 <setvbuf+0x7a>
    2a52:	2680      	movs	r6, #128	; 0x80
    2a54:	00f6      	lsls	r6, r6, #3
    2a56:	1c30      	adds	r0, r6, #0
    2a58:	f000 fdac 	bl	35b4 <malloc>
    2a5c:	1e07      	subs	r7, r0, #0
    2a5e:	d118      	bne.n	2a92 <setvbuf+0xb6>
    2a60:	2080      	movs	r0, #128	; 0x80
    2a62:	00c0      	lsls	r0, r0, #3
    2a64:	f000 fda6 	bl	35b4 <malloc>
    2a68:	1e07      	subs	r7, r0, #0
    2a6a:	d110      	bne.n	2a8e <setvbuf+0xb2>
    2a6c:	2001      	movs	r0, #1
    2a6e:	4240      	negs	r0, r0
    2a70:	e000      	b.n	2a74 <setvbuf+0x98>
    2a72:	2000      	movs	r0, #0
    2a74:	89a3      	ldrh	r3, [r4, #12]
    2a76:	2202      	movs	r2, #2
    2a78:	4313      	orrs	r3, r2
    2a7a:	81a3      	strh	r3, [r4, #12]
    2a7c:	2300      	movs	r3, #0
    2a7e:	60a3      	str	r3, [r4, #8]
    2a80:	1c23      	adds	r3, r4, #0
    2a82:	3347      	adds	r3, #71	; 0x47
    2a84:	6023      	str	r3, [r4, #0]
    2a86:	6123      	str	r3, [r4, #16]
    2a88:	2301      	movs	r3, #1
    2a8a:	6163      	str	r3, [r4, #20]
    2a8c:	e020      	b.n	2ad0 <setvbuf+0xf4>
    2a8e:	2680      	movs	r6, #128	; 0x80
    2a90:	00f6      	lsls	r6, r6, #3
    2a92:	89a3      	ldrh	r3, [r4, #12]
    2a94:	2280      	movs	r2, #128	; 0x80
    2a96:	4313      	orrs	r3, r2
    2a98:	81a3      	strh	r3, [r4, #12]
    2a9a:	9a01      	ldr	r2, [sp, #4]
    2a9c:	2a01      	cmp	r2, #1
    2a9e:	d104      	bne.n	2aaa <setvbuf+0xce>
    2aa0:	89a3      	ldrh	r3, [r4, #12]
    2aa2:	4313      	orrs	r3, r2
    2aa4:	81a3      	strh	r3, [r4, #12]
    2aa6:	4273      	negs	r3, r6
    2aa8:	61a3      	str	r3, [r4, #24]
    2aaa:	4b0e      	ldr	r3, [pc, #56]	; (2ae4 <setvbuf+0x108>)
    2aac:	2000      	movs	r0, #0
    2aae:	62ab      	str	r3, [r5, #40]	; 0x28
    2ab0:	89a3      	ldrh	r3, [r4, #12]
    2ab2:	6027      	str	r7, [r4, #0]
    2ab4:	6127      	str	r7, [r4, #16]
    2ab6:	6166      	str	r6, [r4, #20]
    2ab8:	071a      	lsls	r2, r3, #28
    2aba:	d509      	bpl.n	2ad0 <setvbuf+0xf4>
    2abc:	2203      	movs	r2, #3
    2abe:	4013      	ands	r3, r2
    2ac0:	425a      	negs	r2, r3
    2ac2:	4153      	adcs	r3, r2
    2ac4:	425b      	negs	r3, r3
    2ac6:	401e      	ands	r6, r3
    2ac8:	60a6      	str	r6, [r4, #8]
    2aca:	e001      	b.n	2ad0 <setvbuf+0xf4>
    2acc:	2001      	movs	r0, #1
    2ace:	4240      	negs	r0, r0
    2ad0:	bdfe      	pop	{r1, r2, r3, r4, r5, r6, r7, pc}
    2ad2:	46c0      	nop			; (mov r8, r8)
    2ad4:	20000064 	.word	0x20000064
    2ad8:	00003efc 	.word	0x00003efc
    2adc:	00003f1c 	.word	0x00003f1c
    2ae0:	00003f3c 	.word	0x00003f3c
    2ae4:	0000338d 	.word	0x0000338d

00002ae8 <strcmp>:
    2ae8:	7802      	ldrb	r2, [r0, #0]
    2aea:	780b      	ldrb	r3, [r1, #0]
    2aec:	3001      	adds	r0, #1
    2aee:	3101      	adds	r1, #1
    2af0:	2a00      	cmp	r2, #0
    2af2:	d001      	beq.n	2af8 <strcmp+0x10>
    2af4:	429a      	cmp	r2, r3
    2af6:	d0f7      	beq.n	2ae8 <strcmp>
    2af8:	1ad0      	subs	r0, r2, r3
    2afa:	4770      	bx	lr

00002afc <__sfputc_r>:
    2afc:	6893      	ldr	r3, [r2, #8]
    2afe:	b510      	push	{r4, lr}
    2b00:	3b01      	subs	r3, #1
    2b02:	6093      	str	r3, [r2, #8]
    2b04:	2b00      	cmp	r3, #0
    2b06:	da05      	bge.n	2b14 <__sfputc_r+0x18>
    2b08:	6994      	ldr	r4, [r2, #24]
    2b0a:	42a3      	cmp	r3, r4
    2b0c:	db08      	blt.n	2b20 <__sfputc_r+0x24>
    2b0e:	b2cb      	uxtb	r3, r1
    2b10:	2b0a      	cmp	r3, #10
    2b12:	d005      	beq.n	2b20 <__sfputc_r+0x24>
    2b14:	6813      	ldr	r3, [r2, #0]
    2b16:	1c58      	adds	r0, r3, #1
    2b18:	6010      	str	r0, [r2, #0]
    2b1a:	7019      	strb	r1, [r3, #0]
    2b1c:	b2c8      	uxtb	r0, r1
    2b1e:	e001      	b.n	2b24 <__sfputc_r+0x28>
    2b20:	f000 fab4 	bl	308c <__swbuf_r>
    2b24:	bd10      	pop	{r4, pc}

00002b26 <__sfputs_r>:
    2b26:	b5f8      	push	{r3, r4, r5, r6, r7, lr}
    2b28:	1c06      	adds	r6, r0, #0
    2b2a:	1c0f      	adds	r7, r1, #0
    2b2c:	1c14      	adds	r4, r2, #0
    2b2e:	18d5      	adds	r5, r2, r3
    2b30:	42ac      	cmp	r4, r5
    2b32:	d008      	beq.n	2b46 <__sfputs_r+0x20>
    2b34:	7821      	ldrb	r1, [r4, #0]
    2b36:	1c30      	adds	r0, r6, #0
    2b38:	1c3a      	adds	r2, r7, #0
    2b3a:	f7ff ffdf 	bl	2afc <__sfputc_r>
    2b3e:	3401      	adds	r4, #1
    2b40:	1c43      	adds	r3, r0, #1
    2b42:	d1f5      	bne.n	2b30 <__sfputs_r+0xa>
    2b44:	e000      	b.n	2b48 <__sfputs_r+0x22>
    2b46:	2000      	movs	r0, #0
    2b48:	bdf8      	pop	{r3, r4, r5, r6, r7, pc}
	...

00002b4c <_vfiprintf_r>:
    2b4c:	b5f0      	push	{r4, r5, r6, r7, lr}
    2b4e:	b09f      	sub	sp, #124	; 0x7c
    2b50:	1c06      	adds	r6, r0, #0
    2b52:	1c0f      	adds	r7, r1, #0
    2b54:	9203      	str	r2, [sp, #12]
    2b56:	9305      	str	r3, [sp, #20]
    2b58:	2800      	cmp	r0, #0
    2b5a:	d004      	beq.n	2b66 <_vfiprintf_r+0x1a>
    2b5c:	6981      	ldr	r1, [r0, #24]
    2b5e:	2900      	cmp	r1, #0
    2b60:	d101      	bne.n	2b66 <_vfiprintf_r+0x1a>
    2b62:	f000 fc67 	bl	3434 <__sinit>
    2b66:	4b75      	ldr	r3, [pc, #468]	; (2d3c <_vfiprintf_r+0x1f0>)
    2b68:	429f      	cmp	r7, r3
    2b6a:	d101      	bne.n	2b70 <_vfiprintf_r+0x24>
    2b6c:	6877      	ldr	r7, [r6, #4]
    2b6e:	e008      	b.n	2b82 <_vfiprintf_r+0x36>
    2b70:	4b73      	ldr	r3, [pc, #460]	; (2d40 <_vfiprintf_r+0x1f4>)
    2b72:	429f      	cmp	r7, r3
    2b74:	d101      	bne.n	2b7a <_vfiprintf_r+0x2e>
    2b76:	68b7      	ldr	r7, [r6, #8]
    2b78:	e003      	b.n	2b82 <_vfiprintf_r+0x36>
    2b7a:	4b72      	ldr	r3, [pc, #456]	; (2d44 <_vfiprintf_r+0x1f8>)
    2b7c:	429f      	cmp	r7, r3
    2b7e:	d100      	bne.n	2b82 <_vfiprintf_r+0x36>
    2b80:	68f7      	ldr	r7, [r6, #12]
    2b82:	89bb      	ldrh	r3, [r7, #12]
    2b84:	071a      	lsls	r2, r3, #28
    2b86:	d50a      	bpl.n	2b9e <_vfiprintf_r+0x52>
    2b88:	693b      	ldr	r3, [r7, #16]
    2b8a:	2b00      	cmp	r3, #0
    2b8c:	d007      	beq.n	2b9e <_vfiprintf_r+0x52>
    2b8e:	ad06      	add	r5, sp, #24
    2b90:	2300      	movs	r3, #0
    2b92:	616b      	str	r3, [r5, #20]
    2b94:	2320      	movs	r3, #32
    2b96:	766b      	strb	r3, [r5, #25]
    2b98:	2330      	movs	r3, #48	; 0x30
    2b9a:	76ab      	strb	r3, [r5, #26]
    2b9c:	e03b      	b.n	2c16 <_vfiprintf_r+0xca>
    2b9e:	1c30      	adds	r0, r6, #0
    2ba0:	1c39      	adds	r1, r7, #0
    2ba2:	f000 facb 	bl	313c <__swsetup_r>
    2ba6:	2800      	cmp	r0, #0
    2ba8:	d0f1      	beq.n	2b8e <_vfiprintf_r+0x42>
    2baa:	2001      	movs	r0, #1
    2bac:	4240      	negs	r0, r0
    2bae:	e0c2      	b.n	2d36 <_vfiprintf_r+0x1ea>
    2bb0:	9a05      	ldr	r2, [sp, #20]
    2bb2:	1d11      	adds	r1, r2, #4
    2bb4:	6812      	ldr	r2, [r2, #0]
    2bb6:	9105      	str	r1, [sp, #20]
    2bb8:	2a00      	cmp	r2, #0
    2bba:	db76      	blt.n	2caa <_vfiprintf_r+0x15e>
    2bbc:	9209      	str	r2, [sp, #36]	; 0x24
    2bbe:	3401      	adds	r4, #1
    2bc0:	7823      	ldrb	r3, [r4, #0]
    2bc2:	2b2e      	cmp	r3, #46	; 0x2e
    2bc4:	d100      	bne.n	2bc8 <_vfiprintf_r+0x7c>
    2bc6:	e081      	b.n	2ccc <_vfiprintf_r+0x180>
    2bc8:	7821      	ldrb	r1, [r4, #0]
    2bca:	485f      	ldr	r0, [pc, #380]	; (2d48 <_vfiprintf_r+0x1fc>)
    2bcc:	2203      	movs	r2, #3
    2bce:	f000 fcfb 	bl	35c8 <memchr>
    2bd2:	2800      	cmp	r0, #0
    2bd4:	d007      	beq.n	2be6 <_vfiprintf_r+0x9a>
    2bd6:	495c      	ldr	r1, [pc, #368]	; (2d48 <_vfiprintf_r+0x1fc>)
    2bd8:	682a      	ldr	r2, [r5, #0]
    2bda:	1a43      	subs	r3, r0, r1
    2bdc:	2040      	movs	r0, #64	; 0x40
    2bde:	4098      	lsls	r0, r3
    2be0:	4310      	orrs	r0, r2
    2be2:	6028      	str	r0, [r5, #0]
    2be4:	3401      	adds	r4, #1
    2be6:	7821      	ldrb	r1, [r4, #0]
    2be8:	1c63      	adds	r3, r4, #1
    2bea:	4858      	ldr	r0, [pc, #352]	; (2d4c <_vfiprintf_r+0x200>)
    2bec:	2206      	movs	r2, #6
    2bee:	9303      	str	r3, [sp, #12]
    2bf0:	7629      	strb	r1, [r5, #24]
    2bf2:	f000 fce9 	bl	35c8 <memchr>
    2bf6:	2800      	cmp	r0, #0
    2bf8:	d100      	bne.n	2bfc <_vfiprintf_r+0xb0>
    2bfa:	e08a      	b.n	2d12 <_vfiprintf_r+0x1c6>
    2bfc:	4b54      	ldr	r3, [pc, #336]	; (2d50 <_vfiprintf_r+0x204>)
    2bfe:	2b00      	cmp	r3, #0
    2c00:	d17e      	bne.n	2d00 <_vfiprintf_r+0x1b4>
    2c02:	9b05      	ldr	r3, [sp, #20]
    2c04:	2207      	movs	r2, #7
    2c06:	3307      	adds	r3, #7
    2c08:	4393      	bics	r3, r2
    2c0a:	3308      	adds	r3, #8
    2c0c:	9305      	str	r3, [sp, #20]
    2c0e:	696a      	ldr	r2, [r5, #20]
    2c10:	9904      	ldr	r1, [sp, #16]
    2c12:	1853      	adds	r3, r2, r1
    2c14:	616b      	str	r3, [r5, #20]
    2c16:	9c03      	ldr	r4, [sp, #12]
    2c18:	7823      	ldrb	r3, [r4, #0]
    2c1a:	2b00      	cmp	r3, #0
    2c1c:	d104      	bne.n	2c28 <_vfiprintf_r+0xdc>
    2c1e:	9903      	ldr	r1, [sp, #12]
    2c20:	1a61      	subs	r1, r4, r1
    2c22:	9102      	str	r1, [sp, #8]
    2c24:	d010      	beq.n	2c48 <_vfiprintf_r+0xfc>
    2c26:	e003      	b.n	2c30 <_vfiprintf_r+0xe4>
    2c28:	2b25      	cmp	r3, #37	; 0x25
    2c2a:	d0f8      	beq.n	2c1e <_vfiprintf_r+0xd2>
    2c2c:	3401      	adds	r4, #1
    2c2e:	e7f3      	b.n	2c18 <_vfiprintf_r+0xcc>
    2c30:	1c30      	adds	r0, r6, #0
    2c32:	1c39      	adds	r1, r7, #0
    2c34:	9a03      	ldr	r2, [sp, #12]
    2c36:	9b02      	ldr	r3, [sp, #8]
    2c38:	f7ff ff75 	bl	2b26 <__sfputs_r>
    2c3c:	3001      	adds	r0, #1
    2c3e:	d075      	beq.n	2d2c <_vfiprintf_r+0x1e0>
    2c40:	696a      	ldr	r2, [r5, #20]
    2c42:	9902      	ldr	r1, [sp, #8]
    2c44:	1853      	adds	r3, r2, r1
    2c46:	616b      	str	r3, [r5, #20]
    2c48:	7823      	ldrb	r3, [r4, #0]
    2c4a:	2b00      	cmp	r3, #0
    2c4c:	d06e      	beq.n	2d2c <_vfiprintf_r+0x1e0>
    2c4e:	2201      	movs	r2, #1
    2c50:	4252      	negs	r2, r2
    2c52:	606a      	str	r2, [r5, #4]
    2c54:	466a      	mov	r2, sp
    2c56:	2300      	movs	r3, #0
    2c58:	325b      	adds	r2, #91	; 0x5b
    2c5a:	3401      	adds	r4, #1
    2c5c:	602b      	str	r3, [r5, #0]
    2c5e:	60eb      	str	r3, [r5, #12]
    2c60:	60ab      	str	r3, [r5, #8]
    2c62:	7013      	strb	r3, [r2, #0]
    2c64:	65ab      	str	r3, [r5, #88]	; 0x58
    2c66:	7821      	ldrb	r1, [r4, #0]
    2c68:	483a      	ldr	r0, [pc, #232]	; (2d54 <_vfiprintf_r+0x208>)
    2c6a:	2205      	movs	r2, #5
    2c6c:	f000 fcac 	bl	35c8 <memchr>
    2c70:	2800      	cmp	r0, #0
    2c72:	d008      	beq.n	2c86 <_vfiprintf_r+0x13a>
    2c74:	4a37      	ldr	r2, [pc, #220]	; (2d54 <_vfiprintf_r+0x208>)
    2c76:	3401      	adds	r4, #1
    2c78:	1a83      	subs	r3, r0, r2
    2c7a:	2001      	movs	r0, #1
    2c7c:	4098      	lsls	r0, r3
    2c7e:	682b      	ldr	r3, [r5, #0]
    2c80:	4318      	orrs	r0, r3
    2c82:	6028      	str	r0, [r5, #0]
    2c84:	e7ef      	b.n	2c66 <_vfiprintf_r+0x11a>
    2c86:	682b      	ldr	r3, [r5, #0]
    2c88:	06d9      	lsls	r1, r3, #27
    2c8a:	d503      	bpl.n	2c94 <_vfiprintf_r+0x148>
    2c8c:	466a      	mov	r2, sp
    2c8e:	2120      	movs	r1, #32
    2c90:	325b      	adds	r2, #91	; 0x5b
    2c92:	7011      	strb	r1, [r2, #0]
    2c94:	071a      	lsls	r2, r3, #28
    2c96:	d503      	bpl.n	2ca0 <_vfiprintf_r+0x154>
    2c98:	466a      	mov	r2, sp
    2c9a:	212b      	movs	r1, #43	; 0x2b
    2c9c:	325b      	adds	r2, #91	; 0x5b
    2c9e:	7011      	strb	r1, [r2, #0]
    2ca0:	7822      	ldrb	r2, [r4, #0]
    2ca2:	2a2a      	cmp	r2, #42	; 0x2a
    2ca4:	d084      	beq.n	2bb0 <_vfiprintf_r+0x64>
    2ca6:	9b09      	ldr	r3, [sp, #36]	; 0x24
    2ca8:	e005      	b.n	2cb6 <_vfiprintf_r+0x16a>
    2caa:	4252      	negs	r2, r2
    2cac:	60ea      	str	r2, [r5, #12]
    2cae:	2202      	movs	r2, #2
    2cb0:	4313      	orrs	r3, r2
    2cb2:	602b      	str	r3, [r5, #0]
    2cb4:	e783      	b.n	2bbe <_vfiprintf_r+0x72>
    2cb6:	7822      	ldrb	r2, [r4, #0]
    2cb8:	3a30      	subs	r2, #48	; 0x30
    2cba:	2a09      	cmp	r2, #9
    2cbc:	d804      	bhi.n	2cc8 <_vfiprintf_r+0x17c>
    2cbe:	210a      	movs	r1, #10
    2cc0:	434b      	muls	r3, r1
    2cc2:	3401      	adds	r4, #1
    2cc4:	189b      	adds	r3, r3, r2
    2cc6:	e7f6      	b.n	2cb6 <_vfiprintf_r+0x16a>
    2cc8:	9309      	str	r3, [sp, #36]	; 0x24
    2cca:	e779      	b.n	2bc0 <_vfiprintf_r+0x74>
    2ccc:	7863      	ldrb	r3, [r4, #1]
    2cce:	2b2a      	cmp	r3, #42	; 0x2a
    2cd0:	d109      	bne.n	2ce6 <_vfiprintf_r+0x19a>
    2cd2:	9b05      	ldr	r3, [sp, #20]
    2cd4:	3402      	adds	r4, #2
    2cd6:	1d1a      	adds	r2, r3, #4
    2cd8:	681b      	ldr	r3, [r3, #0]
    2cda:	9205      	str	r2, [sp, #20]
    2cdc:	2b00      	cmp	r3, #0
    2cde:	da0d      	bge.n	2cfc <_vfiprintf_r+0x1b0>
    2ce0:	2301      	movs	r3, #1
    2ce2:	425b      	negs	r3, r3
    2ce4:	e00a      	b.n	2cfc <_vfiprintf_r+0x1b0>
    2ce6:	3401      	adds	r4, #1
    2ce8:	2300      	movs	r3, #0
    2cea:	7822      	ldrb	r2, [r4, #0]
    2cec:	3a30      	subs	r2, #48	; 0x30
    2cee:	2a09      	cmp	r2, #9
    2cf0:	d804      	bhi.n	2cfc <_vfiprintf_r+0x1b0>
    2cf2:	210a      	movs	r1, #10
    2cf4:	434b      	muls	r3, r1
    2cf6:	3401      	adds	r4, #1
    2cf8:	189b      	adds	r3, r3, r2
    2cfa:	e7f6      	b.n	2cea <_vfiprintf_r+0x19e>
    2cfc:	9307      	str	r3, [sp, #28]
    2cfe:	e763      	b.n	2bc8 <_vfiprintf_r+0x7c>
    2d00:	ab05      	add	r3, sp, #20
    2d02:	9300      	str	r3, [sp, #0]
    2d04:	1c30      	adds	r0, r6, #0
    2d06:	1c29      	adds	r1, r5, #0
    2d08:	1c3a      	adds	r2, r7, #0
    2d0a:	4b13      	ldr	r3, [pc, #76]	; (2d58 <_vfiprintf_r+0x20c>)
    2d0c:	e000      	b.n	2d10 <_vfiprintf_r+0x1c4>
    2d0e:	bf00      	nop
    2d10:	e007      	b.n	2d22 <_vfiprintf_r+0x1d6>
    2d12:	ab05      	add	r3, sp, #20
    2d14:	9300      	str	r3, [sp, #0]
    2d16:	1c30      	adds	r0, r6, #0
    2d18:	1c29      	adds	r1, r5, #0
    2d1a:	1c3a      	adds	r2, r7, #0
    2d1c:	4b0e      	ldr	r3, [pc, #56]	; (2d58 <_vfiprintf_r+0x20c>)
    2d1e:	f000 f89f 	bl	2e60 <_printf_i>
    2d22:	9004      	str	r0, [sp, #16]
    2d24:	9904      	ldr	r1, [sp, #16]
    2d26:	3101      	adds	r1, #1
    2d28:	d000      	beq.n	2d2c <_vfiprintf_r+0x1e0>
    2d2a:	e770      	b.n	2c0e <_vfiprintf_r+0xc2>
    2d2c:	89bb      	ldrh	r3, [r7, #12]
    2d2e:	065a      	lsls	r2, r3, #25
    2d30:	d500      	bpl.n	2d34 <_vfiprintf_r+0x1e8>
    2d32:	e73a      	b.n	2baa <_vfiprintf_r+0x5e>
    2d34:	980b      	ldr	r0, [sp, #44]	; 0x2c
    2d36:	b01f      	add	sp, #124	; 0x7c
    2d38:	bdf0      	pop	{r4, r5, r6, r7, pc}
    2d3a:	46c0      	nop			; (mov r8, r8)
    2d3c:	00003efc 	.word	0x00003efc
    2d40:	00003f1c 	.word	0x00003f1c
    2d44:	00003f3c 	.word	0x00003f3c
    2d48:	00003ece 	.word	0x00003ece
    2d4c:	00003ed2 	.word	0x00003ed2
    2d50:	00000000 	.word	0x00000000
    2d54:	00003ec8 	.word	0x00003ec8
    2d58:	00002b27 	.word	0x00002b27

00002d5c <vfiprintf>:
    2d5c:	b538      	push	{r3, r4, r5, lr}
    2d5e:	1c13      	adds	r3, r2, #0
    2d60:	4a04      	ldr	r2, [pc, #16]	; (2d74 <vfiprintf+0x18>)
    2d62:	1c05      	adds	r5, r0, #0
    2d64:	1c0c      	adds	r4, r1, #0
    2d66:	6810      	ldr	r0, [r2, #0]
    2d68:	1c29      	adds	r1, r5, #0
    2d6a:	1c22      	adds	r2, r4, #0
    2d6c:	f7ff feee 	bl	2b4c <_vfiprintf_r>
    2d70:	bd38      	pop	{r3, r4, r5, pc}
    2d72:	46c0      	nop			; (mov r8, r8)
    2d74:	20000064 	.word	0x20000064

00002d78 <_printf_common>:
    2d78:	b5f7      	push	{r0, r1, r2, r4, r5, r6, r7, lr}
    2d7a:	1c15      	adds	r5, r2, #0
    2d7c:	9301      	str	r3, [sp, #4]
    2d7e:	690a      	ldr	r2, [r1, #16]
    2d80:	688b      	ldr	r3, [r1, #8]
    2d82:	1c06      	adds	r6, r0, #0
    2d84:	1c0c      	adds	r4, r1, #0
    2d86:	4293      	cmp	r3, r2
    2d88:	da00      	bge.n	2d8c <_printf_common+0x14>
    2d8a:	1c13      	adds	r3, r2, #0
    2d8c:	1c22      	adds	r2, r4, #0
    2d8e:	602b      	str	r3, [r5, #0]
    2d90:	3243      	adds	r2, #67	; 0x43
    2d92:	7812      	ldrb	r2, [r2, #0]
    2d94:	2a00      	cmp	r2, #0
    2d96:	d001      	beq.n	2d9c <_printf_common+0x24>
    2d98:	3301      	adds	r3, #1
    2d9a:	602b      	str	r3, [r5, #0]
    2d9c:	6820      	ldr	r0, [r4, #0]
    2d9e:	0680      	lsls	r0, r0, #26
    2da0:	d502      	bpl.n	2da8 <_printf_common+0x30>
    2da2:	682b      	ldr	r3, [r5, #0]
    2da4:	3302      	adds	r3, #2
    2da6:	602b      	str	r3, [r5, #0]
    2da8:	6821      	ldr	r1, [r4, #0]
    2daa:	2706      	movs	r7, #6
    2dac:	400f      	ands	r7, r1
    2dae:	d01f      	beq.n	2df0 <_printf_common+0x78>
    2db0:	1c23      	adds	r3, r4, #0
    2db2:	3343      	adds	r3, #67	; 0x43
    2db4:	781b      	ldrb	r3, [r3, #0]
    2db6:	1e5a      	subs	r2, r3, #1
    2db8:	4193      	sbcs	r3, r2
    2dba:	6822      	ldr	r2, [r4, #0]
    2dbc:	0692      	lsls	r2, r2, #26
    2dbe:	d51f      	bpl.n	2e00 <_printf_common+0x88>
    2dc0:	18e1      	adds	r1, r4, r3
    2dc2:	3140      	adds	r1, #64	; 0x40
    2dc4:	2030      	movs	r0, #48	; 0x30
    2dc6:	70c8      	strb	r0, [r1, #3]
    2dc8:	1c21      	adds	r1, r4, #0
    2dca:	1c5a      	adds	r2, r3, #1
    2dcc:	3145      	adds	r1, #69	; 0x45
    2dce:	7809      	ldrb	r1, [r1, #0]
    2dd0:	18a2      	adds	r2, r4, r2
    2dd2:	3240      	adds	r2, #64	; 0x40
    2dd4:	3302      	adds	r3, #2
    2dd6:	70d1      	strb	r1, [r2, #3]
    2dd8:	e012      	b.n	2e00 <_printf_common+0x88>
    2dda:	1c22      	adds	r2, r4, #0
    2ddc:	1c30      	adds	r0, r6, #0
    2dde:	9901      	ldr	r1, [sp, #4]
    2de0:	3219      	adds	r2, #25
    2de2:	2301      	movs	r3, #1
    2de4:	9f08      	ldr	r7, [sp, #32]
    2de6:	47b8      	blx	r7
    2de8:	3001      	adds	r0, #1
    2dea:	d011      	beq.n	2e10 <_printf_common+0x98>
    2dec:	9f00      	ldr	r7, [sp, #0]
    2dee:	3701      	adds	r7, #1
    2df0:	9700      	str	r7, [sp, #0]
    2df2:	68e0      	ldr	r0, [r4, #12]
    2df4:	6829      	ldr	r1, [r5, #0]
    2df6:	9f00      	ldr	r7, [sp, #0]
    2df8:	1a43      	subs	r3, r0, r1
    2dfa:	429f      	cmp	r7, r3
    2dfc:	dbed      	blt.n	2dda <_printf_common+0x62>
    2dfe:	e7d7      	b.n	2db0 <_printf_common+0x38>
    2e00:	1c22      	adds	r2, r4, #0
    2e02:	1c30      	adds	r0, r6, #0
    2e04:	9901      	ldr	r1, [sp, #4]
    2e06:	3243      	adds	r2, #67	; 0x43
    2e08:	9f08      	ldr	r7, [sp, #32]
    2e0a:	47b8      	blx	r7
    2e0c:	3001      	adds	r0, #1
    2e0e:	d102      	bne.n	2e16 <_printf_common+0x9e>
    2e10:	2001      	movs	r0, #1
    2e12:	4240      	negs	r0, r0
    2e14:	e023      	b.n	2e5e <_printf_common+0xe6>
    2e16:	6820      	ldr	r0, [r4, #0]
    2e18:	2106      	movs	r1, #6
    2e1a:	682b      	ldr	r3, [r5, #0]
    2e1c:	68e2      	ldr	r2, [r4, #12]
    2e1e:	4001      	ands	r1, r0
    2e20:	2500      	movs	r5, #0
    2e22:	2904      	cmp	r1, #4
    2e24:	d103      	bne.n	2e2e <_printf_common+0xb6>
    2e26:	1ad5      	subs	r5, r2, r3
    2e28:	43eb      	mvns	r3, r5
    2e2a:	17db      	asrs	r3, r3, #31
    2e2c:	401d      	ands	r5, r3
    2e2e:	68a2      	ldr	r2, [r4, #8]
    2e30:	6923      	ldr	r3, [r4, #16]
    2e32:	429a      	cmp	r2, r3
    2e34:	dd01      	ble.n	2e3a <_printf_common+0xc2>
    2e36:	1ad3      	subs	r3, r2, r3
    2e38:	18ed      	adds	r5, r5, r3
    2e3a:	2700      	movs	r7, #0
    2e3c:	9700      	str	r7, [sp, #0]
    2e3e:	9f00      	ldr	r7, [sp, #0]
    2e40:	42af      	cmp	r7, r5
    2e42:	da0b      	bge.n	2e5c <_printf_common+0xe4>
    2e44:	1c22      	adds	r2, r4, #0
    2e46:	1c30      	adds	r0, r6, #0
    2e48:	9901      	ldr	r1, [sp, #4]
    2e4a:	321a      	adds	r2, #26
    2e4c:	2301      	movs	r3, #1
    2e4e:	9f08      	ldr	r7, [sp, #32]
    2e50:	47b8      	blx	r7
    2e52:	3001      	adds	r0, #1
    2e54:	d0dc      	beq.n	2e10 <_printf_common+0x98>
    2e56:	9f00      	ldr	r7, [sp, #0]
    2e58:	3701      	adds	r7, #1
    2e5a:	e7ef      	b.n	2e3c <_printf_common+0xc4>
    2e5c:	2000      	movs	r0, #0
    2e5e:	bdfe      	pop	{r1, r2, r3, r4, r5, r6, r7, pc}

00002e60 <_printf_i>:
    2e60:	b5f0      	push	{r4, r5, r6, r7, lr}
    2e62:	1c0d      	adds	r5, r1, #0
    2e64:	b08b      	sub	sp, #44	; 0x2c
    2e66:	3543      	adds	r5, #67	; 0x43
    2e68:	9206      	str	r2, [sp, #24]
    2e6a:	9005      	str	r0, [sp, #20]
    2e6c:	9307      	str	r3, [sp, #28]
    2e6e:	9504      	str	r5, [sp, #16]
    2e70:	7e0b      	ldrb	r3, [r1, #24]
    2e72:	1c0c      	adds	r4, r1, #0
    2e74:	9a10      	ldr	r2, [sp, #64]	; 0x40
    2e76:	2b6e      	cmp	r3, #110	; 0x6e
    2e78:	d100      	bne.n	2e7c <_printf_i+0x1c>
    2e7a:	e0a7      	b.n	2fcc <_printf_i+0x16c>
    2e7c:	d811      	bhi.n	2ea2 <_printf_i+0x42>
    2e7e:	2b63      	cmp	r3, #99	; 0x63
    2e80:	d022      	beq.n	2ec8 <_printf_i+0x68>
    2e82:	d809      	bhi.n	2e98 <_printf_i+0x38>
    2e84:	2b00      	cmp	r3, #0
    2e86:	d100      	bne.n	2e8a <_printf_i+0x2a>
    2e88:	e0b0      	b.n	2fec <_printf_i+0x18c>
    2e8a:	2b58      	cmp	r3, #88	; 0x58
    2e8c:	d000      	beq.n	2e90 <_printf_i+0x30>
    2e8e:	e0c0      	b.n	3012 <_printf_i+0x1b2>
    2e90:	3145      	adds	r1, #69	; 0x45
    2e92:	700b      	strb	r3, [r1, #0]
    2e94:	4d7b      	ldr	r5, [pc, #492]	; (3084 <_printf_i+0x224>)
    2e96:	e04e      	b.n	2f36 <_printf_i+0xd6>
    2e98:	2b64      	cmp	r3, #100	; 0x64
    2e9a:	d01c      	beq.n	2ed6 <_printf_i+0x76>
    2e9c:	2b69      	cmp	r3, #105	; 0x69
    2e9e:	d01a      	beq.n	2ed6 <_printf_i+0x76>
    2ea0:	e0b7      	b.n	3012 <_printf_i+0x1b2>
    2ea2:	2b73      	cmp	r3, #115	; 0x73
    2ea4:	d100      	bne.n	2ea8 <_printf_i+0x48>
    2ea6:	e0a5      	b.n	2ff4 <_printf_i+0x194>
    2ea8:	d809      	bhi.n	2ebe <_printf_i+0x5e>
    2eaa:	2b6f      	cmp	r3, #111	; 0x6f
    2eac:	d029      	beq.n	2f02 <_printf_i+0xa2>
    2eae:	2b70      	cmp	r3, #112	; 0x70
    2eb0:	d000      	beq.n	2eb4 <_printf_i+0x54>
    2eb2:	e0ae      	b.n	3012 <_printf_i+0x1b2>
    2eb4:	680e      	ldr	r6, [r1, #0]
    2eb6:	2320      	movs	r3, #32
    2eb8:	4333      	orrs	r3, r6
    2eba:	600b      	str	r3, [r1, #0]
    2ebc:	e036      	b.n	2f2c <_printf_i+0xcc>
    2ebe:	2b75      	cmp	r3, #117	; 0x75
    2ec0:	d01f      	beq.n	2f02 <_printf_i+0xa2>
    2ec2:	2b78      	cmp	r3, #120	; 0x78
    2ec4:	d032      	beq.n	2f2c <_printf_i+0xcc>
    2ec6:	e0a4      	b.n	3012 <_printf_i+0x1b2>
    2ec8:	6813      	ldr	r3, [r2, #0]
    2eca:	1c0d      	adds	r5, r1, #0
    2ecc:	1d19      	adds	r1, r3, #4
    2ece:	3542      	adds	r5, #66	; 0x42
    2ed0:	6011      	str	r1, [r2, #0]
    2ed2:	681b      	ldr	r3, [r3, #0]
    2ed4:	e09f      	b.n	3016 <_printf_i+0x1b6>
    2ed6:	6821      	ldr	r1, [r4, #0]
    2ed8:	6813      	ldr	r3, [r2, #0]
    2eda:	060e      	lsls	r6, r1, #24
    2edc:	d503      	bpl.n	2ee6 <_printf_i+0x86>
    2ede:	1d19      	adds	r1, r3, #4
    2ee0:	6011      	str	r1, [r2, #0]
    2ee2:	681e      	ldr	r6, [r3, #0]
    2ee4:	e005      	b.n	2ef2 <_printf_i+0x92>
    2ee6:	0648      	lsls	r0, r1, #25
    2ee8:	d5f9      	bpl.n	2ede <_printf_i+0x7e>
    2eea:	1d19      	adds	r1, r3, #4
    2eec:	6011      	str	r1, [r2, #0]
    2eee:	2100      	movs	r1, #0
    2ef0:	5e5e      	ldrsh	r6, [r3, r1]
    2ef2:	4b64      	ldr	r3, [pc, #400]	; (3084 <_printf_i+0x224>)
    2ef4:	2e00      	cmp	r6, #0
    2ef6:	da3b      	bge.n	2f70 <_printf_i+0x110>
    2ef8:	9d04      	ldr	r5, [sp, #16]
    2efa:	222d      	movs	r2, #45	; 0x2d
    2efc:	4276      	negs	r6, r6
    2efe:	702a      	strb	r2, [r5, #0]
    2f00:	e036      	b.n	2f70 <_printf_i+0x110>
    2f02:	6821      	ldr	r1, [r4, #0]
    2f04:	6813      	ldr	r3, [r2, #0]
    2f06:	060e      	lsls	r6, r1, #24
    2f08:	d503      	bpl.n	2f12 <_printf_i+0xb2>
    2f0a:	1d19      	adds	r1, r3, #4
    2f0c:	6011      	str	r1, [r2, #0]
    2f0e:	681e      	ldr	r6, [r3, #0]
    2f10:	e004      	b.n	2f1c <_printf_i+0xbc>
    2f12:	0648      	lsls	r0, r1, #25
    2f14:	d5f9      	bpl.n	2f0a <_printf_i+0xaa>
    2f16:	1d19      	adds	r1, r3, #4
    2f18:	881e      	ldrh	r6, [r3, #0]
    2f1a:	6011      	str	r1, [r2, #0]
    2f1c:	4b59      	ldr	r3, [pc, #356]	; (3084 <_printf_i+0x224>)
    2f1e:	7e22      	ldrb	r2, [r4, #24]
    2f20:	9303      	str	r3, [sp, #12]
    2f22:	2708      	movs	r7, #8
    2f24:	2a6f      	cmp	r2, #111	; 0x6f
    2f26:	d01e      	beq.n	2f66 <_printf_i+0x106>
    2f28:	270a      	movs	r7, #10
    2f2a:	e01c      	b.n	2f66 <_printf_i+0x106>
    2f2c:	1c23      	adds	r3, r4, #0
    2f2e:	2178      	movs	r1, #120	; 0x78
    2f30:	3345      	adds	r3, #69	; 0x45
    2f32:	4d55      	ldr	r5, [pc, #340]	; (3088 <_printf_i+0x228>)
    2f34:	7019      	strb	r1, [r3, #0]
    2f36:	6811      	ldr	r1, [r2, #0]
    2f38:	6823      	ldr	r3, [r4, #0]
    2f3a:	1d08      	adds	r0, r1, #4
    2f3c:	9503      	str	r5, [sp, #12]
    2f3e:	6010      	str	r0, [r2, #0]
    2f40:	061e      	lsls	r6, r3, #24
    2f42:	d501      	bpl.n	2f48 <_printf_i+0xe8>
    2f44:	680e      	ldr	r6, [r1, #0]
    2f46:	e002      	b.n	2f4e <_printf_i+0xee>
    2f48:	0658      	lsls	r0, r3, #25
    2f4a:	d5fb      	bpl.n	2f44 <_printf_i+0xe4>
    2f4c:	880e      	ldrh	r6, [r1, #0]
    2f4e:	07d9      	lsls	r1, r3, #31
    2f50:	d502      	bpl.n	2f58 <_printf_i+0xf8>
    2f52:	2220      	movs	r2, #32
    2f54:	4313      	orrs	r3, r2
    2f56:	6023      	str	r3, [r4, #0]
    2f58:	2710      	movs	r7, #16
    2f5a:	2e00      	cmp	r6, #0
    2f5c:	d103      	bne.n	2f66 <_printf_i+0x106>
    2f5e:	6822      	ldr	r2, [r4, #0]
    2f60:	2320      	movs	r3, #32
    2f62:	439a      	bics	r2, r3
    2f64:	6022      	str	r2, [r4, #0]
    2f66:	1c23      	adds	r3, r4, #0
    2f68:	2200      	movs	r2, #0
    2f6a:	3343      	adds	r3, #67	; 0x43
    2f6c:	701a      	strb	r2, [r3, #0]
    2f6e:	e001      	b.n	2f74 <_printf_i+0x114>
    2f70:	9303      	str	r3, [sp, #12]
    2f72:	270a      	movs	r7, #10
    2f74:	6863      	ldr	r3, [r4, #4]
    2f76:	60a3      	str	r3, [r4, #8]
    2f78:	2b00      	cmp	r3, #0
    2f7a:	db03      	blt.n	2f84 <_printf_i+0x124>
    2f7c:	6825      	ldr	r5, [r4, #0]
    2f7e:	2204      	movs	r2, #4
    2f80:	4395      	bics	r5, r2
    2f82:	6025      	str	r5, [r4, #0]
    2f84:	2e00      	cmp	r6, #0
    2f86:	d102      	bne.n	2f8e <_printf_i+0x12e>
    2f88:	9d04      	ldr	r5, [sp, #16]
    2f8a:	2b00      	cmp	r3, #0
    2f8c:	d00e      	beq.n	2fac <_printf_i+0x14c>
    2f8e:	9d04      	ldr	r5, [sp, #16]
    2f90:	1c30      	adds	r0, r6, #0
    2f92:	1c39      	adds	r1, r7, #0
    2f94:	f7ff fc06 	bl	27a4 <__aeabi_uidivmod>
    2f98:	9803      	ldr	r0, [sp, #12]
    2f9a:	3d01      	subs	r5, #1
    2f9c:	5c43      	ldrb	r3, [r0, r1]
    2f9e:	1c30      	adds	r0, r6, #0
    2fa0:	702b      	strb	r3, [r5, #0]
    2fa2:	1c39      	adds	r1, r7, #0
    2fa4:	f7ff fbba 	bl	271c <__aeabi_uidiv>
    2fa8:	1e06      	subs	r6, r0, #0
    2faa:	d1f1      	bne.n	2f90 <_printf_i+0x130>
    2fac:	2f08      	cmp	r7, #8
    2fae:	d109      	bne.n	2fc4 <_printf_i+0x164>
    2fb0:	6821      	ldr	r1, [r4, #0]
    2fb2:	07c9      	lsls	r1, r1, #31
    2fb4:	d506      	bpl.n	2fc4 <_printf_i+0x164>
    2fb6:	6862      	ldr	r2, [r4, #4]
    2fb8:	6923      	ldr	r3, [r4, #16]
    2fba:	429a      	cmp	r2, r3
    2fbc:	dc02      	bgt.n	2fc4 <_printf_i+0x164>
    2fbe:	3d01      	subs	r5, #1
    2fc0:	2330      	movs	r3, #48	; 0x30
    2fc2:	702b      	strb	r3, [r5, #0]
    2fc4:	9e04      	ldr	r6, [sp, #16]
    2fc6:	1b73      	subs	r3, r6, r5
    2fc8:	6123      	str	r3, [r4, #16]
    2fca:	e02a      	b.n	3022 <_printf_i+0x1c2>
    2fcc:	6808      	ldr	r0, [r1, #0]
    2fce:	6813      	ldr	r3, [r2, #0]
    2fd0:	6949      	ldr	r1, [r1, #20]
    2fd2:	0605      	lsls	r5, r0, #24
    2fd4:	d504      	bpl.n	2fe0 <_printf_i+0x180>
    2fd6:	1d18      	adds	r0, r3, #4
    2fd8:	6010      	str	r0, [r2, #0]
    2fda:	681b      	ldr	r3, [r3, #0]
    2fdc:	6019      	str	r1, [r3, #0]
    2fde:	e005      	b.n	2fec <_printf_i+0x18c>
    2fe0:	0646      	lsls	r6, r0, #25
    2fe2:	d5f8      	bpl.n	2fd6 <_printf_i+0x176>
    2fe4:	1d18      	adds	r0, r3, #4
    2fe6:	6010      	str	r0, [r2, #0]
    2fe8:	681b      	ldr	r3, [r3, #0]
    2fea:	8019      	strh	r1, [r3, #0]
    2fec:	2300      	movs	r3, #0
    2fee:	6123      	str	r3, [r4, #16]
    2ff0:	9d04      	ldr	r5, [sp, #16]
    2ff2:	e016      	b.n	3022 <_printf_i+0x1c2>
    2ff4:	6813      	ldr	r3, [r2, #0]
    2ff6:	1d19      	adds	r1, r3, #4
    2ff8:	6011      	str	r1, [r2, #0]
    2ffa:	681d      	ldr	r5, [r3, #0]
    2ffc:	1c28      	adds	r0, r5, #0
    2ffe:	f000 fbe9 	bl	37d4 <strlen>
    3002:	6863      	ldr	r3, [r4, #4]
    3004:	6120      	str	r0, [r4, #16]
    3006:	4298      	cmp	r0, r3
    3008:	d900      	bls.n	300c <_printf_i+0x1ac>
    300a:	6123      	str	r3, [r4, #16]
    300c:	6920      	ldr	r0, [r4, #16]
    300e:	6060      	str	r0, [r4, #4]
    3010:	e004      	b.n	301c <_printf_i+0x1bc>
    3012:	1c25      	adds	r5, r4, #0
    3014:	3542      	adds	r5, #66	; 0x42
    3016:	702b      	strb	r3, [r5, #0]
    3018:	2301      	movs	r3, #1
    301a:	6123      	str	r3, [r4, #16]
    301c:	9e04      	ldr	r6, [sp, #16]
    301e:	2300      	movs	r3, #0
    3020:	7033      	strb	r3, [r6, #0]
    3022:	9e07      	ldr	r6, [sp, #28]
    3024:	9805      	ldr	r0, [sp, #20]
    3026:	9600      	str	r6, [sp, #0]
    3028:	1c21      	adds	r1, r4, #0
    302a:	aa09      	add	r2, sp, #36	; 0x24
    302c:	9b06      	ldr	r3, [sp, #24]
    302e:	f7ff fea3 	bl	2d78 <_printf_common>
    3032:	3001      	adds	r0, #1
    3034:	d102      	bne.n	303c <_printf_i+0x1dc>
    3036:	2001      	movs	r0, #1
    3038:	4240      	negs	r0, r0
    303a:	e021      	b.n	3080 <_printf_i+0x220>
    303c:	1c2a      	adds	r2, r5, #0
    303e:	9805      	ldr	r0, [sp, #20]
    3040:	9906      	ldr	r1, [sp, #24]
    3042:	6923      	ldr	r3, [r4, #16]
    3044:	9d07      	ldr	r5, [sp, #28]
    3046:	47a8      	blx	r5
    3048:	3001      	adds	r0, #1
    304a:	d0f4      	beq.n	3036 <_printf_i+0x1d6>
    304c:	6826      	ldr	r6, [r4, #0]
    304e:	07b6      	lsls	r6, r6, #30
    3050:	d405      	bmi.n	305e <_printf_i+0x1fe>
    3052:	9b09      	ldr	r3, [sp, #36]	; 0x24
    3054:	68e0      	ldr	r0, [r4, #12]
    3056:	4298      	cmp	r0, r3
    3058:	da12      	bge.n	3080 <_printf_i+0x220>
    305a:	1c18      	adds	r0, r3, #0
    305c:	e010      	b.n	3080 <_printf_i+0x220>
    305e:	2500      	movs	r5, #0
    3060:	68e0      	ldr	r0, [r4, #12]
    3062:	9909      	ldr	r1, [sp, #36]	; 0x24
    3064:	1a43      	subs	r3, r0, r1
    3066:	429d      	cmp	r5, r3
    3068:	daf3      	bge.n	3052 <_printf_i+0x1f2>
    306a:	1c22      	adds	r2, r4, #0
    306c:	9805      	ldr	r0, [sp, #20]
    306e:	9906      	ldr	r1, [sp, #24]
    3070:	3219      	adds	r2, #25
    3072:	2301      	movs	r3, #1
    3074:	9e07      	ldr	r6, [sp, #28]
    3076:	47b0      	blx	r6
    3078:	3001      	adds	r0, #1
    307a:	d0dc      	beq.n	3036 <_printf_i+0x1d6>
    307c:	3501      	adds	r5, #1
    307e:	e7ef      	b.n	3060 <_printf_i+0x200>
    3080:	b00b      	add	sp, #44	; 0x2c
    3082:	bdf0      	pop	{r4, r5, r6, r7, pc}
    3084:	00003ed9 	.word	0x00003ed9
    3088:	00003eea 	.word	0x00003eea

0000308c <__swbuf_r>:
    308c:	b570      	push	{r4, r5, r6, lr}
    308e:	1c05      	adds	r5, r0, #0
    3090:	1c0e      	adds	r6, r1, #0
    3092:	1c14      	adds	r4, r2, #0
    3094:	2800      	cmp	r0, #0
    3096:	d004      	beq.n	30a2 <__swbuf_r+0x16>
    3098:	6982      	ldr	r2, [r0, #24]
    309a:	2a00      	cmp	r2, #0
    309c:	d101      	bne.n	30a2 <__swbuf_r+0x16>
    309e:	f000 f9c9 	bl	3434 <__sinit>
    30a2:	4b23      	ldr	r3, [pc, #140]	; (3130 <__swbuf_r+0xa4>)
    30a4:	429c      	cmp	r4, r3
    30a6:	d101      	bne.n	30ac <__swbuf_r+0x20>
    30a8:	686c      	ldr	r4, [r5, #4]
    30aa:	e008      	b.n	30be <__swbuf_r+0x32>
    30ac:	4b21      	ldr	r3, [pc, #132]	; (3134 <__swbuf_r+0xa8>)
    30ae:	429c      	cmp	r4, r3
    30b0:	d101      	bne.n	30b6 <__swbuf_r+0x2a>
    30b2:	68ac      	ldr	r4, [r5, #8]
    30b4:	e003      	b.n	30be <__swbuf_r+0x32>
    30b6:	4b20      	ldr	r3, [pc, #128]	; (3138 <__swbuf_r+0xac>)
    30b8:	429c      	cmp	r4, r3
    30ba:	d100      	bne.n	30be <__swbuf_r+0x32>
    30bc:	68ec      	ldr	r4, [r5, #12]
    30be:	69a3      	ldr	r3, [r4, #24]
    30c0:	60a3      	str	r3, [r4, #8]
    30c2:	89a3      	ldrh	r3, [r4, #12]
    30c4:	071a      	lsls	r2, r3, #28
    30c6:	d50a      	bpl.n	30de <__swbuf_r+0x52>
    30c8:	6923      	ldr	r3, [r4, #16]
    30ca:	2b00      	cmp	r3, #0
    30cc:	d007      	beq.n	30de <__swbuf_r+0x52>
    30ce:	6822      	ldr	r2, [r4, #0]
    30d0:	6923      	ldr	r3, [r4, #16]
    30d2:	b2f6      	uxtb	r6, r6
    30d4:	1ad0      	subs	r0, r2, r3
    30d6:	6962      	ldr	r2, [r4, #20]
    30d8:	4290      	cmp	r0, r2
    30da:	db0f      	blt.n	30fc <__swbuf_r+0x70>
    30dc:	e008      	b.n	30f0 <__swbuf_r+0x64>
    30de:	1c28      	adds	r0, r5, #0
    30e0:	1c21      	adds	r1, r4, #0
    30e2:	f000 f82b 	bl	313c <__swsetup_r>
    30e6:	2800      	cmp	r0, #0
    30e8:	d0f1      	beq.n	30ce <__swbuf_r+0x42>
    30ea:	2001      	movs	r0, #1
    30ec:	4240      	negs	r0, r0
    30ee:	e01d      	b.n	312c <__swbuf_r+0xa0>
    30f0:	1c28      	adds	r0, r5, #0
    30f2:	1c21      	adds	r1, r4, #0
    30f4:	f000 f91e 	bl	3334 <_fflush_r>
    30f8:	2800      	cmp	r0, #0
    30fa:	d1f6      	bne.n	30ea <__swbuf_r+0x5e>
    30fc:	68a3      	ldr	r3, [r4, #8]
    30fe:	3001      	adds	r0, #1
    3100:	3b01      	subs	r3, #1
    3102:	60a3      	str	r3, [r4, #8]
    3104:	6823      	ldr	r3, [r4, #0]
    3106:	1c5a      	adds	r2, r3, #1
    3108:	6022      	str	r2, [r4, #0]
    310a:	701e      	strb	r6, [r3, #0]
    310c:	6963      	ldr	r3, [r4, #20]
    310e:	4298      	cmp	r0, r3
    3110:	d005      	beq.n	311e <__swbuf_r+0x92>
    3112:	89a3      	ldrh	r3, [r4, #12]
    3114:	1c30      	adds	r0, r6, #0
    3116:	07da      	lsls	r2, r3, #31
    3118:	d508      	bpl.n	312c <__swbuf_r+0xa0>
    311a:	2e0a      	cmp	r6, #10
    311c:	d106      	bne.n	312c <__swbuf_r+0xa0>
    311e:	1c28      	adds	r0, r5, #0
    3120:	1c21      	adds	r1, r4, #0
    3122:	f000 f907 	bl	3334 <_fflush_r>
    3126:	2800      	cmp	r0, #0
    3128:	d1df      	bne.n	30ea <__swbuf_r+0x5e>
    312a:	1c30      	adds	r0, r6, #0
    312c:	bd70      	pop	{r4, r5, r6, pc}
    312e:	46c0      	nop			; (mov r8, r8)
    3130:	00003efc 	.word	0x00003efc
    3134:	00003f1c 	.word	0x00003f1c
    3138:	00003f3c 	.word	0x00003f3c

0000313c <__swsetup_r>:
    313c:	4b34      	ldr	r3, [pc, #208]	; (3210 <__swsetup_r+0xd4>)
    313e:	b570      	push	{r4, r5, r6, lr}
    3140:	681d      	ldr	r5, [r3, #0]
    3142:	1c06      	adds	r6, r0, #0
    3144:	1c0c      	adds	r4, r1, #0
    3146:	2d00      	cmp	r5, #0
    3148:	d005      	beq.n	3156 <__swsetup_r+0x1a>
    314a:	69a9      	ldr	r1, [r5, #24]
    314c:	2900      	cmp	r1, #0
    314e:	d102      	bne.n	3156 <__swsetup_r+0x1a>
    3150:	1c28      	adds	r0, r5, #0
    3152:	f000 f96f 	bl	3434 <__sinit>
    3156:	4b2f      	ldr	r3, [pc, #188]	; (3214 <__swsetup_r+0xd8>)
    3158:	429c      	cmp	r4, r3
    315a:	d101      	bne.n	3160 <__swsetup_r+0x24>
    315c:	686c      	ldr	r4, [r5, #4]
    315e:	e008      	b.n	3172 <__swsetup_r+0x36>
    3160:	4b2d      	ldr	r3, [pc, #180]	; (3218 <__swsetup_r+0xdc>)
    3162:	429c      	cmp	r4, r3
    3164:	d101      	bne.n	316a <__swsetup_r+0x2e>
    3166:	68ac      	ldr	r4, [r5, #8]
    3168:	e003      	b.n	3172 <__swsetup_r+0x36>
    316a:	4b2c      	ldr	r3, [pc, #176]	; (321c <__swsetup_r+0xe0>)
    316c:	429c      	cmp	r4, r3
    316e:	d100      	bne.n	3172 <__swsetup_r+0x36>
    3170:	68ec      	ldr	r4, [r5, #12]
    3172:	89a2      	ldrh	r2, [r4, #12]
    3174:	b293      	uxth	r3, r2
    3176:	0719      	lsls	r1, r3, #28
    3178:	d421      	bmi.n	31be <__swsetup_r+0x82>
    317a:	06d9      	lsls	r1, r3, #27
    317c:	d405      	bmi.n	318a <__swsetup_r+0x4e>
    317e:	2309      	movs	r3, #9
    3180:	6033      	str	r3, [r6, #0]
    3182:	2340      	movs	r3, #64	; 0x40
    3184:	431a      	orrs	r2, r3
    3186:	81a2      	strh	r2, [r4, #12]
    3188:	e03f      	b.n	320a <__swsetup_r+0xce>
    318a:	075a      	lsls	r2, r3, #29
    318c:	d513      	bpl.n	31b6 <__swsetup_r+0x7a>
    318e:	6b61      	ldr	r1, [r4, #52]	; 0x34
    3190:	2900      	cmp	r1, #0
    3192:	d008      	beq.n	31a6 <__swsetup_r+0x6a>
    3194:	1c23      	adds	r3, r4, #0
    3196:	3344      	adds	r3, #68	; 0x44
    3198:	4299      	cmp	r1, r3
    319a:	d002      	beq.n	31a2 <__swsetup_r+0x66>
    319c:	1c30      	adds	r0, r6, #0
    319e:	f000 fa1f 	bl	35e0 <_free_r>
    31a2:	2300      	movs	r3, #0
    31a4:	6363      	str	r3, [r4, #52]	; 0x34
    31a6:	89a3      	ldrh	r3, [r4, #12]
    31a8:	2224      	movs	r2, #36	; 0x24
    31aa:	4393      	bics	r3, r2
    31ac:	81a3      	strh	r3, [r4, #12]
    31ae:	2300      	movs	r3, #0
    31b0:	6063      	str	r3, [r4, #4]
    31b2:	6923      	ldr	r3, [r4, #16]
    31b4:	6023      	str	r3, [r4, #0]
    31b6:	89a3      	ldrh	r3, [r4, #12]
    31b8:	2208      	movs	r2, #8
    31ba:	4313      	orrs	r3, r2
    31bc:	81a3      	strh	r3, [r4, #12]
    31be:	6921      	ldr	r1, [r4, #16]
    31c0:	2900      	cmp	r1, #0
    31c2:	d10b      	bne.n	31dc <__swsetup_r+0xa0>
    31c4:	89a3      	ldrh	r3, [r4, #12]
    31c6:	22a0      	movs	r2, #160	; 0xa0
    31c8:	0092      	lsls	r2, r2, #2
    31ca:	401a      	ands	r2, r3
    31cc:	2380      	movs	r3, #128	; 0x80
    31ce:	009b      	lsls	r3, r3, #2
    31d0:	429a      	cmp	r2, r3
    31d2:	d003      	beq.n	31dc <__swsetup_r+0xa0>
    31d4:	1c30      	adds	r0, r6, #0
    31d6:	1c21      	adds	r1, r4, #0
    31d8:	f000 f99c 	bl	3514 <__smakebuf_r>
    31dc:	89a3      	ldrh	r3, [r4, #12]
    31de:	2201      	movs	r2, #1
    31e0:	401a      	ands	r2, r3
    31e2:	d005      	beq.n	31f0 <__swsetup_r+0xb4>
    31e4:	6961      	ldr	r1, [r4, #20]
    31e6:	2200      	movs	r2, #0
    31e8:	60a2      	str	r2, [r4, #8]
    31ea:	424a      	negs	r2, r1
    31ec:	61a2      	str	r2, [r4, #24]
    31ee:	e003      	b.n	31f8 <__swsetup_r+0xbc>
    31f0:	0799      	lsls	r1, r3, #30
    31f2:	d400      	bmi.n	31f6 <__swsetup_r+0xba>
    31f4:	6962      	ldr	r2, [r4, #20]
    31f6:	60a2      	str	r2, [r4, #8]
    31f8:	6922      	ldr	r2, [r4, #16]
    31fa:	2000      	movs	r0, #0
    31fc:	4282      	cmp	r2, r0
    31fe:	d106      	bne.n	320e <__swsetup_r+0xd2>
    3200:	0619      	lsls	r1, r3, #24
    3202:	d504      	bpl.n	320e <__swsetup_r+0xd2>
    3204:	2240      	movs	r2, #64	; 0x40
    3206:	4313      	orrs	r3, r2
    3208:	81a3      	strh	r3, [r4, #12]
    320a:	2001      	movs	r0, #1
    320c:	4240      	negs	r0, r0
    320e:	bd70      	pop	{r4, r5, r6, pc}
    3210:	20000064 	.word	0x20000064
    3214:	00003efc 	.word	0x00003efc
    3218:	00003f1c 	.word	0x00003f1c
    321c:	00003f3c 	.word	0x00003f3c

00003220 <__sflush_r>:
    3220:	b5f7      	push	{r0, r1, r2, r4, r5, r6, r7, lr}
    3222:	898b      	ldrh	r3, [r1, #12]
    3224:	1c05      	adds	r5, r0, #0
    3226:	1c0c      	adds	r4, r1, #0
    3228:	0719      	lsls	r1, r3, #28
    322a:	d45e      	bmi.n	32ea <__sflush_r+0xca>
    322c:	6862      	ldr	r2, [r4, #4]
    322e:	2a00      	cmp	r2, #0
    3230:	dc02      	bgt.n	3238 <__sflush_r+0x18>
    3232:	6c27      	ldr	r7, [r4, #64]	; 0x40
    3234:	2f00      	cmp	r7, #0
    3236:	dd1a      	ble.n	326e <__sflush_r+0x4e>
    3238:	6ae7      	ldr	r7, [r4, #44]	; 0x2c
    323a:	2f00      	cmp	r7, #0
    323c:	d017      	beq.n	326e <__sflush_r+0x4e>
    323e:	2200      	movs	r2, #0
    3240:	682e      	ldr	r6, [r5, #0]
    3242:	602a      	str	r2, [r5, #0]
    3244:	2280      	movs	r2, #128	; 0x80
    3246:	0152      	lsls	r2, r2, #5
    3248:	401a      	ands	r2, r3
    324a:	d001      	beq.n	3250 <__sflush_r+0x30>
    324c:	6d62      	ldr	r2, [r4, #84]	; 0x54
    324e:	e015      	b.n	327c <__sflush_r+0x5c>
    3250:	1c28      	adds	r0, r5, #0
    3252:	6a21      	ldr	r1, [r4, #32]
    3254:	2301      	movs	r3, #1
    3256:	47b8      	blx	r7
    3258:	1c02      	adds	r2, r0, #0
    325a:	1c41      	adds	r1, r0, #1
    325c:	d10e      	bne.n	327c <__sflush_r+0x5c>
    325e:	682b      	ldr	r3, [r5, #0]
    3260:	2b00      	cmp	r3, #0
    3262:	d00b      	beq.n	327c <__sflush_r+0x5c>
    3264:	2b1d      	cmp	r3, #29
    3266:	d001      	beq.n	326c <__sflush_r+0x4c>
    3268:	2b16      	cmp	r3, #22
    326a:	d102      	bne.n	3272 <__sflush_r+0x52>
    326c:	602e      	str	r6, [r5, #0]
    326e:	2000      	movs	r0, #0
    3270:	e05e      	b.n	3330 <__sflush_r+0x110>
    3272:	89a3      	ldrh	r3, [r4, #12]
    3274:	2140      	movs	r1, #64	; 0x40
    3276:	430b      	orrs	r3, r1
    3278:	81a3      	strh	r3, [r4, #12]
    327a:	e059      	b.n	3330 <__sflush_r+0x110>
    327c:	89a3      	ldrh	r3, [r4, #12]
    327e:	075f      	lsls	r7, r3, #29
    3280:	d506      	bpl.n	3290 <__sflush_r+0x70>
    3282:	6861      	ldr	r1, [r4, #4]
    3284:	6b63      	ldr	r3, [r4, #52]	; 0x34
    3286:	1a52      	subs	r2, r2, r1
    3288:	2b00      	cmp	r3, #0
    328a:	d001      	beq.n	3290 <__sflush_r+0x70>
    328c:	6c27      	ldr	r7, [r4, #64]	; 0x40
    328e:	1bd2      	subs	r2, r2, r7
    3290:	1c28      	adds	r0, r5, #0
    3292:	6a21      	ldr	r1, [r4, #32]
    3294:	2300      	movs	r3, #0
    3296:	6ae7      	ldr	r7, [r4, #44]	; 0x2c
    3298:	47b8      	blx	r7
    329a:	89a2      	ldrh	r2, [r4, #12]
    329c:	1c41      	adds	r1, r0, #1
    329e:	d106      	bne.n	32ae <__sflush_r+0x8e>
    32a0:	682b      	ldr	r3, [r5, #0]
    32a2:	2b00      	cmp	r3, #0
    32a4:	d003      	beq.n	32ae <__sflush_r+0x8e>
    32a6:	2b1d      	cmp	r3, #29
    32a8:	d001      	beq.n	32ae <__sflush_r+0x8e>
    32aa:	2b16      	cmp	r3, #22
    32ac:	d119      	bne.n	32e2 <__sflush_r+0xc2>
    32ae:	2300      	movs	r3, #0
    32b0:	6063      	str	r3, [r4, #4]
    32b2:	6923      	ldr	r3, [r4, #16]
    32b4:	6023      	str	r3, [r4, #0]
    32b6:	04d7      	lsls	r7, r2, #19
    32b8:	d505      	bpl.n	32c6 <__sflush_r+0xa6>
    32ba:	1c41      	adds	r1, r0, #1
    32bc:	d102      	bne.n	32c4 <__sflush_r+0xa4>
    32be:	682a      	ldr	r2, [r5, #0]
    32c0:	2a00      	cmp	r2, #0
    32c2:	d100      	bne.n	32c6 <__sflush_r+0xa6>
    32c4:	6560      	str	r0, [r4, #84]	; 0x54
    32c6:	6b61      	ldr	r1, [r4, #52]	; 0x34
    32c8:	602e      	str	r6, [r5, #0]
    32ca:	2900      	cmp	r1, #0
    32cc:	d0cf      	beq.n	326e <__sflush_r+0x4e>
    32ce:	1c23      	adds	r3, r4, #0
    32d0:	3344      	adds	r3, #68	; 0x44
    32d2:	4299      	cmp	r1, r3
    32d4:	d002      	beq.n	32dc <__sflush_r+0xbc>
    32d6:	1c28      	adds	r0, r5, #0
    32d8:	f000 f982 	bl	35e0 <_free_r>
    32dc:	2000      	movs	r0, #0
    32de:	6360      	str	r0, [r4, #52]	; 0x34
    32e0:	e026      	b.n	3330 <__sflush_r+0x110>
    32e2:	2340      	movs	r3, #64	; 0x40
    32e4:	431a      	orrs	r2, r3
    32e6:	81a2      	strh	r2, [r4, #12]
    32e8:	e022      	b.n	3330 <__sflush_r+0x110>
    32ea:	6926      	ldr	r6, [r4, #16]
    32ec:	2e00      	cmp	r6, #0
    32ee:	d0be      	beq.n	326e <__sflush_r+0x4e>
    32f0:	6827      	ldr	r7, [r4, #0]
    32f2:	2200      	movs	r2, #0
    32f4:	1bbf      	subs	r7, r7, r6
    32f6:	9701      	str	r7, [sp, #4]
    32f8:	6026      	str	r6, [r4, #0]
    32fa:	0799      	lsls	r1, r3, #30
    32fc:	d100      	bne.n	3300 <__sflush_r+0xe0>
    32fe:	6962      	ldr	r2, [r4, #20]
    3300:	60a2      	str	r2, [r4, #8]
    3302:	9f01      	ldr	r7, [sp, #4]
    3304:	2f00      	cmp	r7, #0
    3306:	ddb2      	ble.n	326e <__sflush_r+0x4e>
    3308:	1c28      	adds	r0, r5, #0
    330a:	6a21      	ldr	r1, [r4, #32]
    330c:	1c32      	adds	r2, r6, #0
    330e:	9b01      	ldr	r3, [sp, #4]
    3310:	6aa7      	ldr	r7, [r4, #40]	; 0x28
    3312:	47b8      	blx	r7
    3314:	2800      	cmp	r0, #0
    3316:	dc06      	bgt.n	3326 <__sflush_r+0x106>
    3318:	89a3      	ldrh	r3, [r4, #12]
    331a:	2240      	movs	r2, #64	; 0x40
    331c:	4313      	orrs	r3, r2
    331e:	2001      	movs	r0, #1
    3320:	81a3      	strh	r3, [r4, #12]
    3322:	4240      	negs	r0, r0
    3324:	e004      	b.n	3330 <__sflush_r+0x110>
    3326:	9f01      	ldr	r7, [sp, #4]
    3328:	1836      	adds	r6, r6, r0
    332a:	1a3f      	subs	r7, r7, r0
    332c:	9701      	str	r7, [sp, #4]
    332e:	e7e8      	b.n	3302 <__sflush_r+0xe2>
    3330:	bdfe      	pop	{r1, r2, r3, r4, r5, r6, r7, pc}
	...

00003334 <_fflush_r>:
    3334:	690a      	ldr	r2, [r1, #16]
    3336:	b538      	push	{r3, r4, r5, lr}
    3338:	1c05      	adds	r5, r0, #0
    333a:	1c0c      	adds	r4, r1, #0
    333c:	2a00      	cmp	r2, #0
    333e:	d101      	bne.n	3344 <_fflush_r+0x10>
    3340:	2000      	movs	r0, #0
    3342:	e01c      	b.n	337e <_fflush_r+0x4a>
    3344:	2800      	cmp	r0, #0
    3346:	d004      	beq.n	3352 <_fflush_r+0x1e>
    3348:	6983      	ldr	r3, [r0, #24]
    334a:	2b00      	cmp	r3, #0
    334c:	d101      	bne.n	3352 <_fflush_r+0x1e>
    334e:	f000 f871 	bl	3434 <__sinit>
    3352:	4b0b      	ldr	r3, [pc, #44]	; (3380 <_fflush_r+0x4c>)
    3354:	429c      	cmp	r4, r3
    3356:	d101      	bne.n	335c <_fflush_r+0x28>
    3358:	686c      	ldr	r4, [r5, #4]
    335a:	e008      	b.n	336e <_fflush_r+0x3a>
    335c:	4b09      	ldr	r3, [pc, #36]	; (3384 <_fflush_r+0x50>)
    335e:	429c      	cmp	r4, r3
    3360:	d101      	bne.n	3366 <_fflush_r+0x32>
    3362:	68ac      	ldr	r4, [r5, #8]
    3364:	e003      	b.n	336e <_fflush_r+0x3a>
    3366:	4b08      	ldr	r3, [pc, #32]	; (3388 <_fflush_r+0x54>)
    3368:	429c      	cmp	r4, r3
    336a:	d100      	bne.n	336e <_fflush_r+0x3a>
    336c:	68ec      	ldr	r4, [r5, #12]
    336e:	220c      	movs	r2, #12
    3370:	5ea3      	ldrsh	r3, [r4, r2]
    3372:	2b00      	cmp	r3, #0
    3374:	d0e4      	beq.n	3340 <_fflush_r+0xc>
    3376:	1c28      	adds	r0, r5, #0
    3378:	1c21      	adds	r1, r4, #0
    337a:	f7ff ff51 	bl	3220 <__sflush_r>
    337e:	bd38      	pop	{r3, r4, r5, pc}
    3380:	00003efc 	.word	0x00003efc
    3384:	00003f1c 	.word	0x00003f1c
    3388:	00003f3c 	.word	0x00003f3c

0000338c <_cleanup_r>:
    338c:	b5f8      	push	{r3, r4, r5, r6, r7, lr}
    338e:	1c04      	adds	r4, r0, #0
    3390:	1c07      	adds	r7, r0, #0
    3392:	3448      	adds	r4, #72	; 0x48
    3394:	2c00      	cmp	r4, #0
    3396:	d012      	beq.n	33be <_cleanup_r+0x32>
    3398:	68a5      	ldr	r5, [r4, #8]
    339a:	6866      	ldr	r6, [r4, #4]
    339c:	3e01      	subs	r6, #1
    339e:	d40c      	bmi.n	33ba <_cleanup_r+0x2e>
    33a0:	89ab      	ldrh	r3, [r5, #12]
    33a2:	2b01      	cmp	r3, #1
    33a4:	d907      	bls.n	33b6 <_cleanup_r+0x2a>
    33a6:	220e      	movs	r2, #14
    33a8:	5eab      	ldrsh	r3, [r5, r2]
    33aa:	3301      	adds	r3, #1
    33ac:	d003      	beq.n	33b6 <_cleanup_r+0x2a>
    33ae:	1c38      	adds	r0, r7, #0
    33b0:	1c29      	adds	r1, r5, #0
    33b2:	f7ff ffbf 	bl	3334 <_fflush_r>
    33b6:	3568      	adds	r5, #104	; 0x68
    33b8:	e7f0      	b.n	339c <_cleanup_r+0x10>
    33ba:	6824      	ldr	r4, [r4, #0]
    33bc:	e7ea      	b.n	3394 <_cleanup_r+0x8>
    33be:	bdf8      	pop	{r3, r4, r5, r6, r7, pc}

000033c0 <std.isra.0>:
    33c0:	2300      	movs	r3, #0
    33c2:	b510      	push	{r4, lr}
    33c4:	1c04      	adds	r4, r0, #0
    33c6:	6003      	str	r3, [r0, #0]
    33c8:	6043      	str	r3, [r0, #4]
    33ca:	6083      	str	r3, [r0, #8]
    33cc:	8181      	strh	r1, [r0, #12]
    33ce:	6643      	str	r3, [r0, #100]	; 0x64
    33d0:	81c2      	strh	r2, [r0, #14]
    33d2:	6103      	str	r3, [r0, #16]
    33d4:	6143      	str	r3, [r0, #20]
    33d6:	6183      	str	r3, [r0, #24]
    33d8:	1c19      	adds	r1, r3, #0
    33da:	2208      	movs	r2, #8
    33dc:	305c      	adds	r0, #92	; 0x5c
    33de:	f7ff fa4a 	bl	2876 <memset>
    33e2:	4b05      	ldr	r3, [pc, #20]	; (33f8 <std.isra.0+0x38>)
    33e4:	6224      	str	r4, [r4, #32]
    33e6:	6263      	str	r3, [r4, #36]	; 0x24
    33e8:	4b04      	ldr	r3, [pc, #16]	; (33fc <std.isra.0+0x3c>)
    33ea:	62a3      	str	r3, [r4, #40]	; 0x28
    33ec:	4b04      	ldr	r3, [pc, #16]	; (3400 <std.isra.0+0x40>)
    33ee:	62e3      	str	r3, [r4, #44]	; 0x2c
    33f0:	4b04      	ldr	r3, [pc, #16]	; (3404 <std.isra.0+0x44>)
    33f2:	6323      	str	r3, [r4, #48]	; 0x30
    33f4:	bd10      	pop	{r4, pc}
    33f6:	46c0      	nop			; (mov r8, r8)
    33f8:	0000373d 	.word	0x0000373d
    33fc:	00003765 	.word	0x00003765
    3400:	0000379d 	.word	0x0000379d
    3404:	000037c9 	.word	0x000037c9

00003408 <__sfmoreglue>:
    3408:	b570      	push	{r4, r5, r6, lr}
    340a:	1e4b      	subs	r3, r1, #1
    340c:	2568      	movs	r5, #104	; 0x68
    340e:	435d      	muls	r5, r3
    3410:	1c0e      	adds	r6, r1, #0
    3412:	1c29      	adds	r1, r5, #0
    3414:	3174      	adds	r1, #116	; 0x74
    3416:	f000 f92b 	bl	3670 <_malloc_r>
    341a:	1e04      	subs	r4, r0, #0
    341c:	d008      	beq.n	3430 <__sfmoreglue+0x28>
    341e:	2100      	movs	r1, #0
    3420:	6001      	str	r1, [r0, #0]
    3422:	6046      	str	r6, [r0, #4]
    3424:	1c2a      	adds	r2, r5, #0
    3426:	300c      	adds	r0, #12
    3428:	60a0      	str	r0, [r4, #8]
    342a:	3268      	adds	r2, #104	; 0x68
    342c:	f7ff fa23 	bl	2876 <memset>
    3430:	1c20      	adds	r0, r4, #0
    3432:	bd70      	pop	{r4, r5, r6, pc}

00003434 <__sinit>:
    3434:	6983      	ldr	r3, [r0, #24]
    3436:	b513      	push	{r0, r1, r4, lr}
    3438:	1c04      	adds	r4, r0, #0
    343a:	2b00      	cmp	r3, #0
    343c:	d127      	bne.n	348e <__sinit+0x5a>
    343e:	6483      	str	r3, [r0, #72]	; 0x48
    3440:	64c3      	str	r3, [r0, #76]	; 0x4c
    3442:	6503      	str	r3, [r0, #80]	; 0x50
    3444:	4b12      	ldr	r3, [pc, #72]	; (3490 <__sinit+0x5c>)
    3446:	4a13      	ldr	r2, [pc, #76]	; (3494 <__sinit+0x60>)
    3448:	681b      	ldr	r3, [r3, #0]
    344a:	6282      	str	r2, [r0, #40]	; 0x28
    344c:	4298      	cmp	r0, r3
    344e:	d101      	bne.n	3454 <__sinit+0x20>
    3450:	2301      	movs	r3, #1
    3452:	6183      	str	r3, [r0, #24]
    3454:	1c20      	adds	r0, r4, #0
    3456:	f000 f81f 	bl	3498 <__sfp>
    345a:	6060      	str	r0, [r4, #4]
    345c:	1c20      	adds	r0, r4, #0
    345e:	f000 f81b 	bl	3498 <__sfp>
    3462:	60a0      	str	r0, [r4, #8]
    3464:	1c20      	adds	r0, r4, #0
    3466:	f000 f817 	bl	3498 <__sfp>
    346a:	2104      	movs	r1, #4
    346c:	60e0      	str	r0, [r4, #12]
    346e:	2200      	movs	r2, #0
    3470:	6860      	ldr	r0, [r4, #4]
    3472:	f7ff ffa5 	bl	33c0 <std.isra.0>
    3476:	68a0      	ldr	r0, [r4, #8]
    3478:	2109      	movs	r1, #9
    347a:	2201      	movs	r2, #1
    347c:	f7ff ffa0 	bl	33c0 <std.isra.0>
    3480:	68e0      	ldr	r0, [r4, #12]
    3482:	2112      	movs	r1, #18
    3484:	2202      	movs	r2, #2
    3486:	f7ff ff9b 	bl	33c0 <std.isra.0>
    348a:	2301      	movs	r3, #1
    348c:	61a3      	str	r3, [r4, #24]
    348e:	bd13      	pop	{r0, r1, r4, pc}
    3490:	00003ec4 	.word	0x00003ec4
    3494:	0000338d 	.word	0x0000338d

00003498 <__sfp>:
    3498:	b5f8      	push	{r3, r4, r5, r6, r7, lr}
    349a:	4b1d      	ldr	r3, [pc, #116]	; (3510 <__sfp+0x78>)
    349c:	1c07      	adds	r7, r0, #0
    349e:	681e      	ldr	r6, [r3, #0]
    34a0:	69b2      	ldr	r2, [r6, #24]
    34a2:	2a00      	cmp	r2, #0
    34a4:	d102      	bne.n	34ac <__sfp+0x14>
    34a6:	1c30      	adds	r0, r6, #0
    34a8:	f7ff ffc4 	bl	3434 <__sinit>
    34ac:	3648      	adds	r6, #72	; 0x48
    34ae:	68b4      	ldr	r4, [r6, #8]
    34b0:	6873      	ldr	r3, [r6, #4]
    34b2:	3b01      	subs	r3, #1
    34b4:	d405      	bmi.n	34c2 <__sfp+0x2a>
    34b6:	220c      	movs	r2, #12
    34b8:	5ea5      	ldrsh	r5, [r4, r2]
    34ba:	2d00      	cmp	r5, #0
    34bc:	d010      	beq.n	34e0 <__sfp+0x48>
    34be:	3468      	adds	r4, #104	; 0x68
    34c0:	e7f7      	b.n	34b2 <__sfp+0x1a>
    34c2:	6833      	ldr	r3, [r6, #0]
    34c4:	2b00      	cmp	r3, #0
    34c6:	d106      	bne.n	34d6 <__sfp+0x3e>
    34c8:	1c38      	adds	r0, r7, #0
    34ca:	2104      	movs	r1, #4
    34cc:	f7ff ff9c 	bl	3408 <__sfmoreglue>
    34d0:	6030      	str	r0, [r6, #0]
    34d2:	2800      	cmp	r0, #0
    34d4:	d001      	beq.n	34da <__sfp+0x42>
    34d6:	6836      	ldr	r6, [r6, #0]
    34d8:	e7e9      	b.n	34ae <__sfp+0x16>
    34da:	230c      	movs	r3, #12
    34dc:	603b      	str	r3, [r7, #0]
    34de:	e016      	b.n	350e <__sfp+0x76>
    34e0:	2301      	movs	r3, #1
    34e2:	425b      	negs	r3, r3
    34e4:	81e3      	strh	r3, [r4, #14]
    34e6:	1c20      	adds	r0, r4, #0
    34e8:	2301      	movs	r3, #1
    34ea:	81a3      	strh	r3, [r4, #12]
    34ec:	6665      	str	r5, [r4, #100]	; 0x64
    34ee:	6025      	str	r5, [r4, #0]
    34f0:	60a5      	str	r5, [r4, #8]
    34f2:	6065      	str	r5, [r4, #4]
    34f4:	6125      	str	r5, [r4, #16]
    34f6:	6165      	str	r5, [r4, #20]
    34f8:	61a5      	str	r5, [r4, #24]
    34fa:	305c      	adds	r0, #92	; 0x5c
    34fc:	1c29      	adds	r1, r5, #0
    34fe:	2208      	movs	r2, #8
    3500:	f7ff f9b9 	bl	2876 <memset>
    3504:	6365      	str	r5, [r4, #52]	; 0x34
    3506:	63a5      	str	r5, [r4, #56]	; 0x38
    3508:	64a5      	str	r5, [r4, #72]	; 0x48
    350a:	64e5      	str	r5, [r4, #76]	; 0x4c
    350c:	1c20      	adds	r0, r4, #0
    350e:	bdf8      	pop	{r3, r4, r5, r6, r7, pc}
    3510:	00003ec4 	.word	0x00003ec4

00003514 <__smakebuf_r>:
    3514:	b5f0      	push	{r4, r5, r6, r7, lr}
    3516:	898b      	ldrh	r3, [r1, #12]
    3518:	b091      	sub	sp, #68	; 0x44
    351a:	1c05      	adds	r5, r0, #0
    351c:	1c0c      	adds	r4, r1, #0
    351e:	079a      	lsls	r2, r3, #30
    3520:	d425      	bmi.n	356e <__smakebuf_r+0x5a>
    3522:	230e      	movs	r3, #14
    3524:	5ec9      	ldrsh	r1, [r1, r3]
    3526:	2900      	cmp	r1, #0
    3528:	da06      	bge.n	3538 <__smakebuf_r+0x24>
    352a:	89a7      	ldrh	r7, [r4, #12]
    352c:	2380      	movs	r3, #128	; 0x80
    352e:	401f      	ands	r7, r3
    3530:	d00f      	beq.n	3552 <__smakebuf_r+0x3e>
    3532:	2700      	movs	r7, #0
    3534:	2640      	movs	r6, #64	; 0x40
    3536:	e00e      	b.n	3556 <__smakebuf_r+0x42>
    3538:	aa01      	add	r2, sp, #4
    353a:	f000 f979 	bl	3830 <_fstat_r>
    353e:	2800      	cmp	r0, #0
    3540:	dbf3      	blt.n	352a <__smakebuf_r+0x16>
    3542:	9b02      	ldr	r3, [sp, #8]
    3544:	27f0      	movs	r7, #240	; 0xf0
    3546:	023f      	lsls	r7, r7, #8
    3548:	4a18      	ldr	r2, [pc, #96]	; (35ac <__smakebuf_r+0x98>)
    354a:	401f      	ands	r7, r3
    354c:	18bf      	adds	r7, r7, r2
    354e:	427b      	negs	r3, r7
    3550:	415f      	adcs	r7, r3
    3552:	2680      	movs	r6, #128	; 0x80
    3554:	00f6      	lsls	r6, r6, #3
    3556:	1c28      	adds	r0, r5, #0
    3558:	1c31      	adds	r1, r6, #0
    355a:	f000 f889 	bl	3670 <_malloc_r>
    355e:	2800      	cmp	r0, #0
    3560:	d10c      	bne.n	357c <__smakebuf_r+0x68>
    3562:	89a3      	ldrh	r3, [r4, #12]
    3564:	059a      	lsls	r2, r3, #22
    3566:	d41f      	bmi.n	35a8 <__smakebuf_r+0x94>
    3568:	2202      	movs	r2, #2
    356a:	4313      	orrs	r3, r2
    356c:	81a3      	strh	r3, [r4, #12]
    356e:	1c23      	adds	r3, r4, #0
    3570:	3347      	adds	r3, #71	; 0x47
    3572:	6023      	str	r3, [r4, #0]
    3574:	6123      	str	r3, [r4, #16]
    3576:	2301      	movs	r3, #1
    3578:	6163      	str	r3, [r4, #20]
    357a:	e015      	b.n	35a8 <__smakebuf_r+0x94>
    357c:	4b0c      	ldr	r3, [pc, #48]	; (35b0 <__smakebuf_r+0x9c>)
    357e:	2280      	movs	r2, #128	; 0x80
    3580:	62ab      	str	r3, [r5, #40]	; 0x28
    3582:	89a3      	ldrh	r3, [r4, #12]
    3584:	6020      	str	r0, [r4, #0]
    3586:	4313      	orrs	r3, r2
    3588:	81a3      	strh	r3, [r4, #12]
    358a:	6120      	str	r0, [r4, #16]
    358c:	6166      	str	r6, [r4, #20]
    358e:	2f00      	cmp	r7, #0
    3590:	d00a      	beq.n	35a8 <__smakebuf_r+0x94>
    3592:	230e      	movs	r3, #14
    3594:	5ee1      	ldrsh	r1, [r4, r3]
    3596:	1c28      	adds	r0, r5, #0
    3598:	f000 f95c 	bl	3854 <_isatty_r>
    359c:	2800      	cmp	r0, #0
    359e:	d003      	beq.n	35a8 <__smakebuf_r+0x94>
    35a0:	89a3      	ldrh	r3, [r4, #12]
    35a2:	2201      	movs	r2, #1
    35a4:	4313      	orrs	r3, r2
    35a6:	81a3      	strh	r3, [r4, #12]
    35a8:	b011      	add	sp, #68	; 0x44
    35aa:	bdf0      	pop	{r4, r5, r6, r7, pc}
    35ac:	ffffe000 	.word	0xffffe000
    35b0:	0000338d 	.word	0x0000338d

000035b4 <malloc>:
    35b4:	b508      	push	{r3, lr}
    35b6:	4b03      	ldr	r3, [pc, #12]	; (35c4 <malloc+0x10>)
    35b8:	1c01      	adds	r1, r0, #0
    35ba:	6818      	ldr	r0, [r3, #0]
    35bc:	f000 f858 	bl	3670 <_malloc_r>
    35c0:	bd08      	pop	{r3, pc}
    35c2:	46c0      	nop			; (mov r8, r8)
    35c4:	20000064 	.word	0x20000064

000035c8 <memchr>:
    35c8:	b2c9      	uxtb	r1, r1
    35ca:	1882      	adds	r2, r0, r2
    35cc:	4290      	cmp	r0, r2
    35ce:	d004      	beq.n	35da <memchr+0x12>
    35d0:	7803      	ldrb	r3, [r0, #0]
    35d2:	428b      	cmp	r3, r1
    35d4:	d002      	beq.n	35dc <memchr+0x14>
    35d6:	3001      	adds	r0, #1
    35d8:	e7f8      	b.n	35cc <memchr+0x4>
    35da:	2000      	movs	r0, #0
    35dc:	4770      	bx	lr
	...

000035e0 <_free_r>:
    35e0:	b530      	push	{r4, r5, lr}
    35e2:	2900      	cmp	r1, #0
    35e4:	d040      	beq.n	3668 <_free_r+0x88>
    35e6:	3904      	subs	r1, #4
    35e8:	680b      	ldr	r3, [r1, #0]
    35ea:	2b00      	cmp	r3, #0
    35ec:	da00      	bge.n	35f0 <_free_r+0x10>
    35ee:	18c9      	adds	r1, r1, r3
    35f0:	4a1e      	ldr	r2, [pc, #120]	; (366c <_free_r+0x8c>)
    35f2:	6813      	ldr	r3, [r2, #0]
    35f4:	1c14      	adds	r4, r2, #0
    35f6:	2b00      	cmp	r3, #0
    35f8:	d102      	bne.n	3600 <_free_r+0x20>
    35fa:	604b      	str	r3, [r1, #4]
    35fc:	6011      	str	r1, [r2, #0]
    35fe:	e033      	b.n	3668 <_free_r+0x88>
    3600:	4299      	cmp	r1, r3
    3602:	d20f      	bcs.n	3624 <_free_r+0x44>
    3604:	6808      	ldr	r0, [r1, #0]
    3606:	180a      	adds	r2, r1, r0
    3608:	429a      	cmp	r2, r3
    360a:	d105      	bne.n	3618 <_free_r+0x38>
    360c:	6813      	ldr	r3, [r2, #0]
    360e:	6852      	ldr	r2, [r2, #4]
    3610:	18c0      	adds	r0, r0, r3
    3612:	6008      	str	r0, [r1, #0]
    3614:	604a      	str	r2, [r1, #4]
    3616:	e000      	b.n	361a <_free_r+0x3a>
    3618:	604b      	str	r3, [r1, #4]
    361a:	6021      	str	r1, [r4, #0]
    361c:	e024      	b.n	3668 <_free_r+0x88>
    361e:	428a      	cmp	r2, r1
    3620:	d803      	bhi.n	362a <_free_r+0x4a>
    3622:	1c13      	adds	r3, r2, #0
    3624:	685a      	ldr	r2, [r3, #4]
    3626:	2a00      	cmp	r2, #0
    3628:	d1f9      	bne.n	361e <_free_r+0x3e>
    362a:	681d      	ldr	r5, [r3, #0]
    362c:	195c      	adds	r4, r3, r5
    362e:	428c      	cmp	r4, r1
    3630:	d10b      	bne.n	364a <_free_r+0x6a>
    3632:	6809      	ldr	r1, [r1, #0]
    3634:	1869      	adds	r1, r5, r1
    3636:	1858      	adds	r0, r3, r1
    3638:	6019      	str	r1, [r3, #0]
    363a:	4290      	cmp	r0, r2
    363c:	d114      	bne.n	3668 <_free_r+0x88>
    363e:	6814      	ldr	r4, [r2, #0]
    3640:	6852      	ldr	r2, [r2, #4]
    3642:	1909      	adds	r1, r1, r4
    3644:	6019      	str	r1, [r3, #0]
    3646:	605a      	str	r2, [r3, #4]
    3648:	e00e      	b.n	3668 <_free_r+0x88>
    364a:	428c      	cmp	r4, r1
    364c:	d902      	bls.n	3654 <_free_r+0x74>
    364e:	230c      	movs	r3, #12
    3650:	6003      	str	r3, [r0, #0]
    3652:	e009      	b.n	3668 <_free_r+0x88>
    3654:	6808      	ldr	r0, [r1, #0]
    3656:	180c      	adds	r4, r1, r0
    3658:	4294      	cmp	r4, r2
    365a:	d103      	bne.n	3664 <_free_r+0x84>
    365c:	6814      	ldr	r4, [r2, #0]
    365e:	6852      	ldr	r2, [r2, #4]
    3660:	1900      	adds	r0, r0, r4
    3662:	6008      	str	r0, [r1, #0]
    3664:	604a      	str	r2, [r1, #4]
    3666:	6059      	str	r1, [r3, #4]
    3668:	bd30      	pop	{r4, r5, pc}
    366a:	46c0      	nop			; (mov r8, r8)
    366c:	20000128 	.word	0x20000128

00003670 <_malloc_r>:
    3670:	b570      	push	{r4, r5, r6, lr}
    3672:	2303      	movs	r3, #3
    3674:	1ccd      	adds	r5, r1, #3
    3676:	439d      	bics	r5, r3
    3678:	3508      	adds	r5, #8
    367a:	1c06      	adds	r6, r0, #0
    367c:	2d0c      	cmp	r5, #12
    367e:	d201      	bcs.n	3684 <_malloc_r+0x14>
    3680:	250c      	movs	r5, #12
    3682:	e001      	b.n	3688 <_malloc_r+0x18>
    3684:	2d00      	cmp	r5, #0
    3686:	db3f      	blt.n	3708 <_malloc_r+0x98>
    3688:	428d      	cmp	r5, r1
    368a:	d33d      	bcc.n	3708 <_malloc_r+0x98>
    368c:	4b20      	ldr	r3, [pc, #128]	; (3710 <_malloc_r+0xa0>)
    368e:	681c      	ldr	r4, [r3, #0]
    3690:	1c1a      	adds	r2, r3, #0
    3692:	1c21      	adds	r1, r4, #0
    3694:	2900      	cmp	r1, #0
    3696:	d013      	beq.n	36c0 <_malloc_r+0x50>
    3698:	6808      	ldr	r0, [r1, #0]
    369a:	1b43      	subs	r3, r0, r5
    369c:	d40d      	bmi.n	36ba <_malloc_r+0x4a>
    369e:	2b0b      	cmp	r3, #11
    36a0:	d902      	bls.n	36a8 <_malloc_r+0x38>
    36a2:	600b      	str	r3, [r1, #0]
    36a4:	18cc      	adds	r4, r1, r3
    36a6:	e01e      	b.n	36e6 <_malloc_r+0x76>
    36a8:	428c      	cmp	r4, r1
    36aa:	d102      	bne.n	36b2 <_malloc_r+0x42>
    36ac:	6863      	ldr	r3, [r4, #4]
    36ae:	6013      	str	r3, [r2, #0]
    36b0:	e01a      	b.n	36e8 <_malloc_r+0x78>
    36b2:	6848      	ldr	r0, [r1, #4]
    36b4:	6060      	str	r0, [r4, #4]
    36b6:	1c0c      	adds	r4, r1, #0
    36b8:	e016      	b.n	36e8 <_malloc_r+0x78>
    36ba:	1c0c      	adds	r4, r1, #0
    36bc:	6849      	ldr	r1, [r1, #4]
    36be:	e7e9      	b.n	3694 <_malloc_r+0x24>
    36c0:	4c14      	ldr	r4, [pc, #80]	; (3714 <_malloc_r+0xa4>)
    36c2:	6820      	ldr	r0, [r4, #0]
    36c4:	2800      	cmp	r0, #0
    36c6:	d103      	bne.n	36d0 <_malloc_r+0x60>
    36c8:	1c30      	adds	r0, r6, #0
    36ca:	f000 f825 	bl	3718 <_sbrk_r>
    36ce:	6020      	str	r0, [r4, #0]
    36d0:	1c30      	adds	r0, r6, #0
    36d2:	1c29      	adds	r1, r5, #0
    36d4:	f000 f820 	bl	3718 <_sbrk_r>
    36d8:	1c43      	adds	r3, r0, #1
    36da:	d015      	beq.n	3708 <_malloc_r+0x98>
    36dc:	1cc4      	adds	r4, r0, #3
    36de:	2303      	movs	r3, #3
    36e0:	439c      	bics	r4, r3
    36e2:	4284      	cmp	r4, r0
    36e4:	d10a      	bne.n	36fc <_malloc_r+0x8c>
    36e6:	6025      	str	r5, [r4, #0]
    36e8:	1c20      	adds	r0, r4, #0
    36ea:	300b      	adds	r0, #11
    36ec:	2207      	movs	r2, #7
    36ee:	1d23      	adds	r3, r4, #4
    36f0:	4390      	bics	r0, r2
    36f2:	1ac3      	subs	r3, r0, r3
    36f4:	d00b      	beq.n	370e <_malloc_r+0x9e>
    36f6:	425a      	negs	r2, r3
    36f8:	50e2      	str	r2, [r4, r3]
    36fa:	e008      	b.n	370e <_malloc_r+0x9e>
    36fc:	1a21      	subs	r1, r4, r0
    36fe:	1c30      	adds	r0, r6, #0
    3700:	f000 f80a 	bl	3718 <_sbrk_r>
    3704:	3001      	adds	r0, #1
    3706:	d1ee      	bne.n	36e6 <_malloc_r+0x76>
    3708:	230c      	movs	r3, #12
    370a:	6033      	str	r3, [r6, #0]
    370c:	2000      	movs	r0, #0
    370e:	bd70      	pop	{r4, r5, r6, pc}
    3710:	20000128 	.word	0x20000128
    3714:	20000124 	.word	0x20000124

00003718 <_sbrk_r>:
    3718:	b538      	push	{r3, r4, r5, lr}
    371a:	4c07      	ldr	r4, [pc, #28]	; (3738 <_sbrk_r+0x20>)
    371c:	2300      	movs	r3, #0
    371e:	1c05      	adds	r5, r0, #0
    3720:	1c08      	adds	r0, r1, #0
    3722:	6023      	str	r3, [r4, #0]
    3724:	f7fe fbf0 	bl	1f08 <_sbrk>
    3728:	1c43      	adds	r3, r0, #1
    372a:	d103      	bne.n	3734 <_sbrk_r+0x1c>
    372c:	6823      	ldr	r3, [r4, #0]
    372e:	2b00      	cmp	r3, #0
    3730:	d000      	beq.n	3734 <_sbrk_r+0x1c>
    3732:	602b      	str	r3, [r5, #0]
    3734:	bd38      	pop	{r3, r4, r5, pc}
    3736:	46c0      	nop			; (mov r8, r8)
    3738:	20000270 	.word	0x20000270

0000373c <__sread>:
    373c:	b538      	push	{r3, r4, r5, lr}
    373e:	1c0c      	adds	r4, r1, #0
    3740:	250e      	movs	r5, #14
    3742:	5f49      	ldrsh	r1, [r1, r5]
    3744:	f000 f8ac 	bl	38a0 <_read_r>
    3748:	2800      	cmp	r0, #0
    374a:	db03      	blt.n	3754 <__sread+0x18>
    374c:	6d62      	ldr	r2, [r4, #84]	; 0x54
    374e:	1813      	adds	r3, r2, r0
    3750:	6563      	str	r3, [r4, #84]	; 0x54
    3752:	e003      	b.n	375c <__sread+0x20>
    3754:	89a2      	ldrh	r2, [r4, #12]
    3756:	4b02      	ldr	r3, [pc, #8]	; (3760 <__sread+0x24>)
    3758:	4013      	ands	r3, r2
    375a:	81a3      	strh	r3, [r4, #12]
    375c:	bd38      	pop	{r3, r4, r5, pc}
    375e:	46c0      	nop			; (mov r8, r8)
    3760:	ffffefff 	.word	0xffffefff

00003764 <__swrite>:
    3764:	b5f8      	push	{r3, r4, r5, r6, r7, lr}
    3766:	1c1e      	adds	r6, r3, #0
    3768:	898b      	ldrh	r3, [r1, #12]
    376a:	1c05      	adds	r5, r0, #0
    376c:	1c0c      	adds	r4, r1, #0
    376e:	1c17      	adds	r7, r2, #0
    3770:	05da      	lsls	r2, r3, #23
    3772:	d505      	bpl.n	3780 <__swrite+0x1c>
    3774:	230e      	movs	r3, #14
    3776:	5ec9      	ldrsh	r1, [r1, r3]
    3778:	2200      	movs	r2, #0
    377a:	2302      	movs	r3, #2
    377c:	f000 f87c 	bl	3878 <_lseek_r>
    3780:	89a2      	ldrh	r2, [r4, #12]
    3782:	4b05      	ldr	r3, [pc, #20]	; (3798 <__swrite+0x34>)
    3784:	1c28      	adds	r0, r5, #0
    3786:	4013      	ands	r3, r2
    3788:	81a3      	strh	r3, [r4, #12]
    378a:	220e      	movs	r2, #14
    378c:	5ea1      	ldrsh	r1, [r4, r2]
    378e:	1c33      	adds	r3, r6, #0
    3790:	1c3a      	adds	r2, r7, #0
    3792:	f000 f827 	bl	37e4 <_write_r>
    3796:	bdf8      	pop	{r3, r4, r5, r6, r7, pc}
    3798:	ffffefff 	.word	0xffffefff

0000379c <__sseek>:
    379c:	b538      	push	{r3, r4, r5, lr}
    379e:	1c0c      	adds	r4, r1, #0
    37a0:	250e      	movs	r5, #14
    37a2:	5f49      	ldrsh	r1, [r1, r5]
    37a4:	f000 f868 	bl	3878 <_lseek_r>
    37a8:	89a3      	ldrh	r3, [r4, #12]
    37aa:	1c42      	adds	r2, r0, #1
    37ac:	d103      	bne.n	37b6 <__sseek+0x1a>
    37ae:	4a05      	ldr	r2, [pc, #20]	; (37c4 <__sseek+0x28>)
    37b0:	4013      	ands	r3, r2
    37b2:	81a3      	strh	r3, [r4, #12]
    37b4:	e004      	b.n	37c0 <__sseek+0x24>
    37b6:	2280      	movs	r2, #128	; 0x80
    37b8:	0152      	lsls	r2, r2, #5
    37ba:	4313      	orrs	r3, r2
    37bc:	81a3      	strh	r3, [r4, #12]
    37be:	6560      	str	r0, [r4, #84]	; 0x54
    37c0:	bd38      	pop	{r3, r4, r5, pc}
    37c2:	46c0      	nop			; (mov r8, r8)
    37c4:	ffffefff 	.word	0xffffefff

000037c8 <__sclose>:
    37c8:	b508      	push	{r3, lr}
    37ca:	230e      	movs	r3, #14
    37cc:	5ec9      	ldrsh	r1, [r1, r3]
    37ce:	f000 f81d 	bl	380c <_close_r>
    37d2:	bd08      	pop	{r3, pc}

000037d4 <strlen>:
    37d4:	2300      	movs	r3, #0
    37d6:	5cc2      	ldrb	r2, [r0, r3]
    37d8:	3301      	adds	r3, #1
    37da:	2a00      	cmp	r2, #0
    37dc:	d1fb      	bne.n	37d6 <strlen+0x2>
    37de:	1e58      	subs	r0, r3, #1
    37e0:	4770      	bx	lr
	...

000037e4 <_write_r>:
    37e4:	b538      	push	{r3, r4, r5, lr}
    37e6:	4c08      	ldr	r4, [pc, #32]	; (3808 <_write_r+0x24>)
    37e8:	1c05      	adds	r5, r0, #0
    37ea:	2000      	movs	r0, #0
    37ec:	6020      	str	r0, [r4, #0]
    37ee:	1c08      	adds	r0, r1, #0
    37f0:	1c11      	adds	r1, r2, #0
    37f2:	1c1a      	adds	r2, r3, #0
    37f4:	f7fe fb6e 	bl	1ed4 <_write>
    37f8:	1c43      	adds	r3, r0, #1
    37fa:	d103      	bne.n	3804 <_write_r+0x20>
    37fc:	6823      	ldr	r3, [r4, #0]
    37fe:	2b00      	cmp	r3, #0
    3800:	d000      	beq.n	3804 <_write_r+0x20>
    3802:	602b      	str	r3, [r5, #0]
    3804:	bd38      	pop	{r3, r4, r5, pc}
    3806:	46c0      	nop			; (mov r8, r8)
    3808:	20000270 	.word	0x20000270

0000380c <_close_r>:
    380c:	b538      	push	{r3, r4, r5, lr}
    380e:	4c07      	ldr	r4, [pc, #28]	; (382c <_close_r+0x20>)
    3810:	2300      	movs	r3, #0
    3812:	1c05      	adds	r5, r0, #0
    3814:	1c08      	adds	r0, r1, #0
    3816:	6023      	str	r3, [r4, #0]
    3818:	f7fe fb86 	bl	1f28 <_close>
    381c:	1c43      	adds	r3, r0, #1
    381e:	d103      	bne.n	3828 <_close_r+0x1c>
    3820:	6823      	ldr	r3, [r4, #0]
    3822:	2b00      	cmp	r3, #0
    3824:	d000      	beq.n	3828 <_close_r+0x1c>
    3826:	602b      	str	r3, [r5, #0]
    3828:	bd38      	pop	{r3, r4, r5, pc}
    382a:	46c0      	nop			; (mov r8, r8)
    382c:	20000270 	.word	0x20000270

00003830 <_fstat_r>:
    3830:	b538      	push	{r3, r4, r5, lr}
    3832:	4c07      	ldr	r4, [pc, #28]	; (3850 <_fstat_r+0x20>)
    3834:	2300      	movs	r3, #0
    3836:	1c05      	adds	r5, r0, #0
    3838:	1c08      	adds	r0, r1, #0
    383a:	1c11      	adds	r1, r2, #0
    383c:	6023      	str	r3, [r4, #0]
    383e:	f7fe fb76 	bl	1f2e <_fstat>
    3842:	1c43      	adds	r3, r0, #1
    3844:	d103      	bne.n	384e <_fstat_r+0x1e>
    3846:	6823      	ldr	r3, [r4, #0]
    3848:	2b00      	cmp	r3, #0
    384a:	d000      	beq.n	384e <_fstat_r+0x1e>
    384c:	602b      	str	r3, [r5, #0]
    384e:	bd38      	pop	{r3, r4, r5, pc}
    3850:	20000270 	.word	0x20000270

00003854 <_isatty_r>:
    3854:	b538      	push	{r3, r4, r5, lr}
    3856:	4c07      	ldr	r4, [pc, #28]	; (3874 <_isatty_r+0x20>)
    3858:	2300      	movs	r3, #0
    385a:	1c05      	adds	r5, r0, #0
    385c:	1c08      	adds	r0, r1, #0
    385e:	6023      	str	r3, [r4, #0]
    3860:	f7fe fb6a 	bl	1f38 <_isatty>
    3864:	1c43      	adds	r3, r0, #1
    3866:	d103      	bne.n	3870 <_isatty_r+0x1c>
    3868:	6823      	ldr	r3, [r4, #0]
    386a:	2b00      	cmp	r3, #0
    386c:	d000      	beq.n	3870 <_isatty_r+0x1c>
    386e:	602b      	str	r3, [r5, #0]
    3870:	bd38      	pop	{r3, r4, r5, pc}
    3872:	46c0      	nop			; (mov r8, r8)
    3874:	20000270 	.word	0x20000270

00003878 <_lseek_r>:
    3878:	b538      	push	{r3, r4, r5, lr}
    387a:	4c08      	ldr	r4, [pc, #32]	; (389c <_lseek_r+0x24>)
    387c:	1c05      	adds	r5, r0, #0
    387e:	2000      	movs	r0, #0
    3880:	6020      	str	r0, [r4, #0]
    3882:	1c08      	adds	r0, r1, #0
    3884:	1c11      	adds	r1, r2, #0
    3886:	1c1a      	adds	r2, r3, #0
    3888:	f7fe fb58 	bl	1f3c <_lseek>
    388c:	1c43      	adds	r3, r0, #1
    388e:	d103      	bne.n	3898 <_lseek_r+0x20>
    3890:	6823      	ldr	r3, [r4, #0]
    3892:	2b00      	cmp	r3, #0
    3894:	d000      	beq.n	3898 <_lseek_r+0x20>
    3896:	602b      	str	r3, [r5, #0]
    3898:	bd38      	pop	{r3, r4, r5, pc}
    389a:	46c0      	nop			; (mov r8, r8)
    389c:	20000270 	.word	0x20000270

000038a0 <_read_r>:
    38a0:	b538      	push	{r3, r4, r5, lr}
    38a2:	4c08      	ldr	r4, [pc, #32]	; (38c4 <_read_r+0x24>)
    38a4:	1c05      	adds	r5, r0, #0
    38a6:	2000      	movs	r0, #0
    38a8:	6020      	str	r0, [r4, #0]
    38aa:	1c08      	adds	r0, r1, #0
    38ac:	1c11      	adds	r1, r2, #0
    38ae:	1c1a      	adds	r2, r3, #0
    38b0:	f7fe faf4 	bl	1e9c <_read>
    38b4:	1c43      	adds	r3, r0, #1
    38b6:	d103      	bne.n	38c0 <_read_r+0x20>
    38b8:	6823      	ldr	r3, [r4, #0]
    38ba:	2b00      	cmp	r3, #0
    38bc:	d000      	beq.n	38c0 <_read_r+0x20>
    38be:	602b      	str	r3, [r5, #0]
    38c0:	bd38      	pop	{r3, r4, r5, pc}
    38c2:	46c0      	nop			; (mov r8, r8)
    38c4:	20000270 	.word	0x20000270
    38c8:	732f2e2e 	.word	0x732f2e2e
    38cc:	412f6372 	.word	0x412f6372
    38d0:	632f4653 	.word	0x632f4653
    38d4:	6f6d6d6f 	.word	0x6f6d6d6f
    38d8:	74752f6e 	.word	0x74752f6e
    38dc:	2f736c69 	.word	0x2f736c69
    38e0:	65746e69 	.word	0x65746e69
    38e4:	70757272 	.word	0x70757272
    38e8:	6e692f74 	.word	0x6e692f74
    38ec:	72726574 	.word	0x72726574
    38f0:	5f747075 	.word	0x5f747075
    38f4:	5f6d6173 	.word	0x5f6d6173
    38f8:	6369766e 	.word	0x6369766e
    38fc:	4100632e 	.word	0x4100632e
    3900:	72657373 	.word	0x72657373
    3904:	6e6f6974 	.word	0x6e6f6974
    3908:	69616620 	.word	0x69616620
    390c:	3a64656c 	.word	0x3a64656c
    3910:	00732520 	.word	0x00732520
    3914:	5f757063 	.word	0x5f757063
    3918:	5f717269 	.word	0x5f717269
    391c:	74697263 	.word	0x74697263
    3920:	6c616369 	.word	0x6c616369
    3924:	6365735f 	.word	0x6365735f
    3928:	6e6f6974 	.word	0x6e6f6974
    392c:	756f635f 	.word	0x756f635f
    3930:	7265746e 	.word	0x7265746e
    3934:	30203e20 	.word	0x30203e20
    3938:	73734100 	.word	0x73734100
    393c:	69747265 	.word	0x69747265
    3940:	27206e6f 	.word	0x27206e6f
    3944:	20277325 	.word	0x20277325
    3948:	6c696166 	.word	0x6c696166
    394c:	61206465 	.word	0x61206465
    3950:	73252074 	.word	0x73252074
    3954:	0d64253a 	.word	0x0d64253a
    3958:	000a      	.short	0x000a
    395a:	6554      	.short	0x6554
    395c:	27207473 	.word	0x27207473
    3960:	20277325 	.word	0x20277325
    3964:	6c696166 	.word	0x6c696166
    3968:	61206465 	.word	0x61206465
    396c:	73252074 	.word	0x73252074
    3970:	3a75253a 	.word	0x3a75253a
    3974:	00090a0d 	.word	0x00090a0d
    3978:	6e6e7552 	.word	0x6e6e7552
    397c:	20676e69 	.word	0x20676e69
    3980:	74736574 	.word	0x74736574
    3984:	69757320 	.word	0x69757320
    3988:	27206574 	.word	0x27206574
    398c:	2e277325 	.word	0x2e277325
    3990:	0a0d2e2e 	.word	0x0a0d2e2e
    3994:	6e755200 	.word	0x6e755200
    3998:	676e696e 	.word	0x676e696e
    399c:	73657420 	.word	0x73657420
    39a0:	25203a74 	.word	0x25203a74
    39a4:	000a0d73 	.word	0x000a0d73
    39a8:	74746553 	.word	0x74746553
    39ac:	20676e69 	.word	0x20676e69
    39b0:	66207075 	.word	0x66207075
    39b4:	75747869 	.word	0x75747869
    39b8:	000d6572 	.word	0x000d6572
    39bc:	74736554 	.word	0x74736554
    39c0:	73252720 	.word	0x73252720
    39c4:	61662027 	.word	0x61662027
    39c8:	64656c69 	.word	0x64656c69
    39cc:	72756420 	.word	0x72756420
    39d0:	20676e69 	.word	0x20676e69
    39d4:	27732527 	.word	0x27732527
    39d8:	6425203a 	.word	0x6425203a
    39dc:	73000a0d 	.word	0x73000a0d
    39e0:	70757465 	.word	0x70757465
    39e4:	73657400 	.word	0x73657400
    39e8:	6c430074 	.word	0x6c430074
    39ec:	696e6165 	.word	0x696e6165
    39f0:	7520676e 	.word	0x7520676e
    39f4:	69662070 	.word	0x69662070
    39f8:	72757478 	.word	0x72757478
    39fc:	63000d65 	.word	0x63000d65
    3a00:	6e61656c 	.word	0x6e61656c
    3a04:	54007075 	.word	0x54007075
    3a08:	20747365 	.word	0x20747365
    3a0c:	74697573 	.word	0x74697573
    3a10:	25272065 	.word	0x25272065
    3a14:	63202773 	.word	0x63202773
    3a18:	6c706d6f 	.word	0x6c706d6f
    3a1c:	3a657465 	.word	0x3a657465
    3a20:	20752520 	.word	0x20752520
    3a24:	74736574 	.word	0x74736574
    3a28:	25202c73 	.word	0x25202c73
    3a2c:	61662075 	.word	0x61662075
    3a30:	72756c69 	.word	0x72756c69
    3a34:	202c7365 	.word	0x202c7365
    3a38:	65207525 	.word	0x65207525
    3a3c:	726f7272 	.word	0x726f7272
    3a40:	0d0a0d73 	.word	0x0d0a0d73
    3a44:	000a      	.short	0x000a
    3a46:	6f63      	.short	0x6f63
    3a48:	6769666e 	.word	0x6769666e
    3a4c:	2f2e2e00 	.word	0x2f2e2e00
    3a50:	2f637273 	.word	0x2f637273
    3a54:	2f465341 	.word	0x2f465341
    3a58:	306d6173 	.word	0x306d6173
    3a5c:	6972642f 	.word	0x6972642f
    3a60:	73726576 	.word	0x73726576
    3a64:	7379732f 	.word	0x7379732f
    3a68:	2f6d6574 	.word	0x2f6d6574
    3a6c:	6d6e6970 	.word	0x6d6e6970
    3a70:	702f7875 	.word	0x702f7875
    3a74:	756d6e69 	.word	0x756d6e69
    3a78:	00682e78 	.word	0x00682e78
    3a7c:	732f2e2e 	.word	0x732f2e2e
    3a80:	412f6372 	.word	0x412f6372
    3a84:	732f4653 	.word	0x732f4653
    3a88:	2f306d61 	.word	0x2f306d61
    3a8c:	76697264 	.word	0x76697264
    3a90:	2f737265 	.word	0x2f737265
    3a94:	74726f70 	.word	0x74726f70
    3a98:	726f702f 	.word	0x726f702f
    3a9c:	00632e74 	.word	0x00632e74
    3aa0:	74726f70 	.word	0x74726f70
    3aa4:	00000000 	.word	0x00000000
    3aa8:	42000800 	.word	0x42000800
    3aac:	42000c00 	.word	0x42000c00
    3ab0:	42001000 	.word	0x42001000
    3ab4:	42001400 	.word	0x42001400
    3ab8:	42001800 	.word	0x42001800
    3abc:	42001c00 	.word	0x42001c00
    3ac0:	732f2e2e 	.word	0x732f2e2e
    3ac4:	412f6372 	.word	0x412f6372
    3ac8:	732f4653 	.word	0x732f4653
    3acc:	2f306d61 	.word	0x2f306d61
    3ad0:	76697264 	.word	0x76697264
    3ad4:	2f737265 	.word	0x2f737265
    3ad8:	63726573 	.word	0x63726573
    3adc:	732f6d6f 	.word	0x732f6d6f
    3ae0:	6f637265 	.word	0x6f637265
    3ae4:	00632e6d 	.word	0x00632e6d
    3ae8:	736c6166 	.word	0x736c6166
    3aec:	0065      	.short	0x0065
    3aee:	0a09      	.short	0x0a09
    3af0:	0e0d0c0b 	.word	0x0e0d0c0b
    3af4:	732f2e2e 	.word	0x732f2e2e
    3af8:	412f6372 	.word	0x412f6372
    3afc:	732f4653 	.word	0x732f4653
    3b00:	2f306d61 	.word	0x2f306d61
    3b04:	76697264 	.word	0x76697264
    3b08:	2f737265 	.word	0x2f737265
    3b0c:	63726573 	.word	0x63726573
    3b10:	732f6d6f 	.word	0x732f6d6f
    3b14:	6f637265 	.word	0x6f637265
    3b18:	6e695f6d 	.word	0x6e695f6d
    3b1c:	72726574 	.word	0x72726574
    3b20:	2e747075 	.word	0x2e747075
    3b24:	0063      	.short	0x0063
    3b26:	2e2e      	.short	0x2e2e
    3b28:	6372732f 	.word	0x6372732f
    3b2c:	4653412f 	.word	0x4653412f
    3b30:	6d61732f 	.word	0x6d61732f
    3b34:	72642f30 	.word	0x72642f30
    3b38:	72657669 	.word	0x72657669
    3b3c:	65732f73 	.word	0x65732f73
    3b40:	6d6f6372 	.word	0x6d6f6372
    3b44:	6173752f 	.word	0x6173752f
    3b48:	752f7472 	.word	0x752f7472
    3b4c:	74726173 	.word	0x74726173
    3b50:	6d00682e 	.word	0x6d00682e
    3b54:	6c75646f 	.word	0x6c75646f
    3b58:	6f6d0065 	.word	0x6f6d0065
    3b5c:	656c7564 	.word	0x656c7564
    3b60:	77683e2d 	.word	0x77683e2d
    3b64:	2f2e2e00 	.word	0x2f2e2e00
    3b68:	2f637273 	.word	0x2f637273
    3b6c:	2f465341 	.word	0x2f465341
    3b70:	306d6173 	.word	0x306d6173
    3b74:	6972642f 	.word	0x6972642f
    3b78:	73726576 	.word	0x73726576
    3b7c:	7265732f 	.word	0x7265732f
    3b80:	2f6d6f63 	.word	0x2f6d6f63
    3b84:	72617375 	.word	0x72617375
    3b88:	73752f74 	.word	0x73752f74
    3b8c:	2e747261 	.word	0x2e747261
    3b90:	0063      	.short	0x0063
    3b92:	2e2e      	.short	0x2e2e
    3b94:	6372732f 	.word	0x6372732f
    3b98:	4653412f 	.word	0x4653412f
    3b9c:	6d61732f 	.word	0x6d61732f
    3ba0:	72642f30 	.word	0x72642f30
    3ba4:	72657669 	.word	0x72657669
    3ba8:	65732f73 	.word	0x65732f73
    3bac:	6d6f6372 	.word	0x6d6f6372
    3bb0:	6173752f 	.word	0x6173752f
    3bb4:	752f7472 	.word	0x752f7472
    3bb8:	74726173 	.word	0x74726173
    3bbc:	746e695f 	.word	0x746e695f
    3bc0:	75727265 	.word	0x75727265
    3bc4:	632e7470 	.word	0x632e7470
    3bc8:	6c616300 	.word	0x6c616300
    3bcc:	6361626c 	.word	0x6361626c
    3bd0:	75665f6b 	.word	0x75665f6b
    3bd4:	7400636e 	.word	0x7400636e
    3bd8:	61645f78 	.word	0x61645f78
    3bdc:	72006174 	.word	0x72006174
    3be0:	61645f78 	.word	0x61645f78
    3be4:	6174      	.short	0x6174
    3be6:	00          	.byte	0x00
    3be7:	2e          	.byte	0x2e
    3be8:	72732f2e 	.word	0x72732f2e
    3bec:	53412f63 	.word	0x53412f63
    3bf0:	61732f46 	.word	0x61732f46
    3bf4:	642f306d 	.word	0x642f306d
    3bf8:	65766972 	.word	0x65766972
    3bfc:	732f7372 	.word	0x732f7372
    3c00:	65747379 	.word	0x65747379
    3c04:	6c632f6d 	.word	0x6c632f6d
    3c08:	2f6b636f 	.word	0x2f6b636f
    3c0c:	636f6c63 	.word	0x636f6c63
    3c10:	61735f6b 	.word	0x61735f6b
    3c14:	3132646d 	.word	0x3132646d
    3c18:	3132725f 	.word	0x3132725f
    3c1c:	6f6c632f 	.word	0x6f6c632f
    3c20:	665f6b63 	.word	0x665f6b63
    3c24:	75746165 	.word	0x75746165
    3c28:	682e6572 	.word	0x682e6572
    3c2c:	2f2e2e00 	.word	0x2f2e2e00
    3c30:	2f637273 	.word	0x2f637273
    3c34:	2f465341 	.word	0x2f465341
    3c38:	306d6173 	.word	0x306d6173
    3c3c:	6972642f 	.word	0x6972642f
    3c40:	73726576 	.word	0x73726576
    3c44:	7379732f 	.word	0x7379732f
    3c48:	2f6d6574 	.word	0x2f6d6574
    3c4c:	636f6c63 	.word	0x636f6c63
    3c50:	6c632f6b 	.word	0x6c632f6b
    3c54:	5f6b636f 	.word	0x5f6b636f
    3c58:	646d6173 	.word	0x646d6173
    3c5c:	725f3132 	.word	0x725f3132
    3c60:	632f3132 	.word	0x632f3132
    3c64:	6b636f6c 	.word	0x6b636f6c
    3c68:	632e      	.short	0x632e
    3c6a:	00          	.byte	0x00
    3c6b:	2e          	.byte	0x2e
    3c6c:	72732f2e 	.word	0x72732f2e
    3c70:	53412f63 	.word	0x53412f63
    3c74:	61732f46 	.word	0x61732f46
    3c78:	642f306d 	.word	0x642f306d
    3c7c:	65766972 	.word	0x65766972
    3c80:	732f7372 	.word	0x732f7372
    3c84:	65747379 	.word	0x65747379
    3c88:	6c632f6d 	.word	0x6c632f6d
    3c8c:	2f6b636f 	.word	0x2f6b636f
    3c90:	636f6c63 	.word	0x636f6c63
    3c94:	61735f6b 	.word	0x61735f6b
    3c98:	3132646d 	.word	0x3132646d
    3c9c:	3132725f 	.word	0x3132725f
    3ca0:	6c63672f 	.word	0x6c63672f
    3ca4:	00632e6b 	.word	0x00632e6b
    3ca8:	4c434721 	.word	0x4c434721
    3cac:	433e2d4b 	.word	0x433e2d4b
    3cb0:	54434b4c 	.word	0x54434b4c
    3cb4:	622e4c52 	.word	0x622e4c52
    3cb8:	572e7469 	.word	0x572e7469
    3cbc:	4f4c5452 	.word	0x4f4c5452
    3cc0:	4b43      	.short	0x4b43
    3cc2:	00          	.byte	0x00
    3cc3:	2e          	.byte	0x2e
    3cc4:	72732f2e 	.word	0x72732f2e
    3cc8:	53412f63 	.word	0x53412f63
    3ccc:	61732f46 	.word	0x61732f46
    3cd0:	642f306d 	.word	0x642f306d
    3cd4:	65766972 	.word	0x65766972
    3cd8:	732f7372 	.word	0x732f7372
    3cdc:	65747379 	.word	0x65747379
    3ce0:	69702f6d 	.word	0x69702f6d
    3ce4:	78756d6e 	.word	0x78756d6e
    3ce8:	6e69702f 	.word	0x6e69702f
    3cec:	2e78756d 	.word	0x2e78756d
    3cf0:	00000063 	.word	0x00000063
    3cf4:	00003e38 	.word	0x00003e38
    3cf8:	00003d34 	.word	0x00003d34
    3cfc:	00003e90 	.word	0x00003e90
    3d00:	00003d24 	.word	0x00003d24

00003d04 <_test_str_receive_buffer_test.12596>:
    3d04:	66667542 69207265 7265746e 74707572     Buffer interrupt
    3d14:	61657220 6e612064 72772064 00657469      read and write.

00003d24 <receive_buffer_test.12597>:
    3d24:	00000000 000024c1 00000000 00003d04     .....$.......=..

00003d34 <transfer_single_9bit_char_test.12593>:
    3d34:	00000000 000022e9 00000000 00003e48     ....."......H>..
    3d44:	732f2e2e 752f6372 5f74696e 74736574     ../src/unit_test
    3d54:	4600632e 656c6961 65722064 76696563     .c.Failed receiv
    3d64:	20676e69 746e6573 74796220 54202e65     ing sent byte. T
    3d74:	64253d58 5852202c 0064253d 732f2e2e     X=%d, RX=%d.../s
    3d84:	412f6372 732f4653 2f306d61 76697264     rc/ASF/sam0/driv
    3d94:	2f737265 63726573 752f6d6f 74726173     ers/sercom/usart
    3da4:	6173752f 695f7472 7265746e 74707572     /usart_interrupt
    3db4:	5400682e 6f656d69 69207475 6572206e     .h.Timeout in re
    3dc4:	74706563 006e6f69 6c696146 72206465     ception.Failed r
    3dd4:	69656365 676e6976 72747320 2e676e69     eceiving string.
    3de4:	3d585420 27732527 5852202c 7325273d      TX='%s', RX='%s
    3df4:	65480027 206f6c6c 6c726f77 54002164     '.Hello world!.T
    3e04:	6f656d69 69207475 6573206e 722f646e     imeout in send/r
    3e14:	69656365 53006576                                eceive.

00003e1b <_test_str_usart_suite.12599>:
    3e1b:	204d4153 52415355 72642054 72657669     SAM USART driver
    3e2b:	73657420 75732074 00657469 00000000               test suite..

00003e38 <transfer_single_8bit_char_test.12591>:
    3e38:	00000000 00001f65 00000000 00003ea0     ....e........>..

00003e48 <_test_str_transfer_single_9bit_char_test.12592>:
    3e48:	6e617254 72656673 6e697320 20656c67     Transfer single 
    3e58:	69622d39 68632074 63617261 00726574     9-bit character.

00003e68 <_test_str_transfer_buffer_test.12594>:
    3e68:	66667542 77207265 65746972 6f6c6220     Buffer write blo
    3e78:	6e696b63 65722f67 69206461 7265746e     cking/read inter
    3e88:	74707572 00000000                       rupt....

00003e90 <transfer_buffer_test.12595>:
    3e90:	00000000 000023c1 00000000 00003e68     .....#......h>..

00003ea0 <_test_str_transfer_single_8bit_char_test.12590>:
    3ea0:	6e617254 72656673 6e697320 20656c67     Transfer single 
    3eb0:	69622d38 68632074 63617261 00726574     8-bit character.
    3ec0:	00000043                                C...

00003ec4 <_global_impure_ptr>:
    3ec4:	20000004 2b302d23 6c680020 6665004c     ... #-0+ .hlL.ef
    3ed4:	47464567 32313000 36353433 41393837     gEFG.0123456789A
    3ee4:	45444342 31300046 35343332 39383736     BCDEF.0123456789
    3ef4:	64636261 00006665                       abcdef..

00003efc <__sf_fake_stdin>:
	...

00003f1c <__sf_fake_stdout>:
	...

00003f3c <__sf_fake_stderr>:
	...

00003f5c <_init>:
    3f5c:	b5f8      	push	{r3, r4, r5, r6, r7, lr}
    3f5e:	46c0      	nop			; (mov r8, r8)
    3f60:	bcf8      	pop	{r3, r4, r5, r6, r7}
    3f62:	bc08      	pop	{r3}
    3f64:	469e      	mov	lr, r3
    3f66:	4770      	bx	lr

00003f68 <__init_array_start>:
    3f68:	000000d9 	.word	0x000000d9

00003f6c <_fini>:
    3f6c:	b5f8      	push	{r3, r4, r5, r6, r7, lr}
    3f6e:	46c0      	nop			; (mov r8, r8)
    3f70:	bcf8      	pop	{r3, r4, r5, r6, r7}
    3f72:	bc08      	pop	{r3}
    3f74:	469e      	mov	lr, r3
    3f76:	4770      	bx	lr

00003f78 <__fini_array_start>:
    3f78:	000000b1 	.word	0x000000b1
